
coremark.gdb:     file format elf32-littleriscv


Disassembly of section .text:

00000000 <_start-0x4>:
       0:	0000                	.insn	2, 0x
	...

00000004 <_start>:
       4:	02c000ef          	jal	30 <.Lload_gp>
       8:	00050793          	mv	a5,a0
       c:	00014517          	auipc	a0,0x14
      10:	bac50513          	addi	a0,a0,-1108 # 13bb8 <main>
      14:	00012583          	lw	a1,0(sp)
      18:	00410613          	addi	a2,sp,4
      1c:	00000693          	li	a3,0
      20:	00000713          	li	a4,0
      24:	ff017113          	andi	sp,sp,-16
      28:	00010813          	mv	a6,sp
      2c:	2a90406f          	j	4ad4 <__uClibc_main>

00000030 <.Lload_gp>:
      30:	00015197          	auipc	gp,0x15
      34:	cf018193          	addi	gp,gp,-784 # 14d20 <__global_pointer$>
      38:	00008067          	ret

0000003c <deregister_tm_clones>:
      3c:	00022517          	auipc	a0,0x22
      40:	4d850513          	addi	a0,a0,1240 # 22514 <__TMC_END__>
      44:	00022797          	auipc	a5,0x22
      48:	4d078793          	addi	a5,a5,1232 # 22514 <__TMC_END__>
      4c:	00a78a63          	beq	a5,a0,60 <.L1>
      50:	00014797          	auipc	a5,0x14
      54:	43c7a783          	lw	a5,1084(a5) # 1448c <_GLOBAL_OFFSET_TABLE_+0x84>
      58:	00078463          	beqz	a5,60 <.L1>
      5c:	00078067          	jr	a5

00000060 <.L1>:
      60:	00008067          	ret

00000064 <register_tm_clones>:
      64:	00022517          	auipc	a0,0x22
      68:	4b050513          	addi	a0,a0,1200 # 22514 <__TMC_END__>
      6c:	00022597          	auipc	a1,0x22
      70:	4a858593          	addi	a1,a1,1192 # 22514 <__TMC_END__>
      74:	40a585b3          	sub	a1,a1,a0
      78:	4025d793          	srai	a5,a1,0x2
      7c:	01f5d593          	srli	a1,a1,0x1f
      80:	00f585b3          	add	a1,a1,a5
      84:	4015d593          	srai	a1,a1,0x1
      88:	00058a63          	beqz	a1,9c <.L7>
      8c:	00014797          	auipc	a5,0x14
      90:	3e47a783          	lw	a5,996(a5) # 14470 <_GLOBAL_OFFSET_TABLE_+0x68>
      94:	00078463          	beqz	a5,9c <.L7>
      98:	00078067          	jr	a5

0000009c <.L7>:
      9c:	00008067          	ret

000000a0 <__do_global_dtors_aux>:
      a0:	ff010113          	addi	sp,sp,-16
      a4:	00812423          	sw	s0,8(sp)
      a8:	00026417          	auipc	s0,0x26
      ac:	c6840413          	addi	s0,s0,-920 # 25d10 <completed.1>
      b0:	00044783          	lbu	a5,0(s0)
      b4:	00112623          	sw	ra,12(sp)
      b8:	02079463          	bnez	a5,e0 <.L15>
      bc:	f81ff0ef          	jal	3c <deregister_tm_clones>
      c0:	00014797          	auipc	a5,0x14
      c4:	3a87a783          	lw	a5,936(a5) # 14468 <_GLOBAL_OFFSET_TABLE_+0x60>
      c8:	00078863          	beqz	a5,d8 <.L17>
      cc:	00022517          	auipc	a0,0x22
      d0:	44850513          	addi	a0,a0,1096 # 22514 <__TMC_END__>
      d4:	000780e7          	jalr	a5

000000d8 <.L17>:
      d8:	00100793          	li	a5,1
      dc:	00f40023          	sb	a5,0(s0)

000000e0 <.L15>:
      e0:	00c12083          	lw	ra,12(sp)
      e4:	00812403          	lw	s0,8(sp)
      e8:	01010113          	addi	sp,sp,16
      ec:	00008067          	ret

000000f0 <frame_dummy>:
      f0:	00014797          	auipc	a5,0x14
      f4:	3f07a783          	lw	a5,1008(a5) # 144e0 <_GLOBAL_OFFSET_TABLE_+0xd8>
      f8:	02078663          	beqz	a5,124 <.L28>
      fc:	ff010113          	addi	sp,sp,-16
     100:	00112623          	sw	ra,12(sp)
     104:	00026597          	auipc	a1,0x26
     108:	c1058593          	addi	a1,a1,-1008 # 25d14 <object.0>
     10c:	00022517          	auipc	a0,0x22
     110:	40850513          	addi	a0,a0,1032 # 22514 <__TMC_END__>
     114:	000780e7          	jalr	a5
     118:	00c12083          	lw	ra,12(sp)
     11c:	01010113          	addi	sp,sp,16
     120:	f45ff06f          	j	64 <register_tm_clones>

00000124 <.L28>:
     124:	f41ff06f          	j	64 <register_tm_clones>

00000128 <portable_malloc>:
     128:	77d0306f          	j	40a4 <malloc>

0000012c <portable_free>:
     12c:	1e80406f          	j	4314 <free>

00000130 <start_time>:
     130:	00026597          	auipc	a1,0x26
     134:	c0058593          	addi	a1,a1,-1024 # 25d30 <start_time_val>
     138:	00000513          	li	a0,0
     13c:	3040706f          	j	7440 <clock_gettime>

00000140 <stop_time>:
     140:	00026597          	auipc	a1,0x26
     144:	c0058593          	addi	a1,a1,-1024 # 25d40 <stop_time_val>
     148:	00000513          	li	a0,0
     14c:	2f40706f          	j	7440 <clock_gettime>

00000150 <get_time>:
     150:	00026717          	auipc	a4,0x26
     154:	be070713          	addi	a4,a4,-1056 # 25d30 <start_time_val>
     158:	01072783          	lw	a5,16(a4)
     15c:	00072683          	lw	a3,0(a4)
     160:	3e800513          	li	a0,1000
     164:	40d787b3          	sub	a5,a5,a3
     168:	02f50533          	mul	a0,a0,a5
     16c:	01872783          	lw	a5,24(a4)
     170:	00872703          	lw	a4,8(a4)
     174:	40e787b3          	sub	a5,a5,a4
     178:	000f4737          	lui	a4,0xf4
     17c:	24070713          	addi	a4,a4,576 # f4240 <_ebss+0xc9770>
     180:	02e7c7b3          	div	a5,a5,a4
     184:	00f50533          	add	a0,a0,a5
     188:	00008067          	ret

0000018c <time_in_secs>:
     18c:	ff010113          	addi	sp,sp,-16
     190:	00112623          	sw	ra,12(sp)
     194:	5c9010ef          	jal	1f5c <__floatsidf>
     198:	0001d797          	auipc	a5,0x1d
     19c:	63878793          	addi	a5,a5,1592 # 1d7d0 <.LC0>
     1a0:	0007a603          	lw	a2,0(a5)
     1a4:	0047a683          	lw	a3,4(a5)
     1a8:	3ac010ef          	jal	1554 <__divdf3>
     1ac:	00c12083          	lw	ra,12(sp)
     1b0:	01010113          	addi	sp,sp,16
     1b4:	00008067          	ret

000001b8 <portable_init>:
     1b8:	00100793          	li	a5,1
     1bc:	00f50023          	sb	a5,0(a0)
     1c0:	00008067          	ret

000001c4 <portable_fini>:
     1c4:	00050023          	sb	zero,0(a0)
     1c8:	00008067          	ret

000001cc <cmp_idx>:
     1cc:	02061e63          	bnez	a2,208 <.L2>
     1d0:	00051783          	lh	a5,0(a0)
     1d4:	f007f713          	andi	a4,a5,-256
     1d8:	01079793          	slli	a5,a5,0x10
     1dc:	0107d793          	srli	a5,a5,0x10
     1e0:	0087d793          	srli	a5,a5,0x8
     1e4:	00f767b3          	or	a5,a4,a5
     1e8:	00f51023          	sh	a5,0(a0)
     1ec:	00059783          	lh	a5,0(a1)
     1f0:	f007f713          	andi	a4,a5,-256
     1f4:	01079793          	slli	a5,a5,0x10
     1f8:	0107d793          	srli	a5,a5,0x10
     1fc:	0087d793          	srli	a5,a5,0x8
     200:	00f767b3          	or	a5,a4,a5
     204:	00f59023          	sh	a5,0(a1)

00000208 <.L2>:
     208:	00251503          	lh	a0,2(a0)
     20c:	00259783          	lh	a5,2(a1)
     210:	40f50533          	sub	a0,a0,a5
     214:	00008067          	ret

00000218 <calc_func>:
     218:	fe010113          	addi	sp,sp,-32
     21c:	00912a23          	sw	s1,20(sp)
     220:	00051483          	lh	s1,0(a0)
     224:	00112e23          	sw	ra,28(sp)
     228:	00812c23          	sw	s0,24(sp)
     22c:	4074d793          	srai	a5,s1,0x7
     230:	01212823          	sw	s2,16(sp)
     234:	01312623          	sw	s3,12(sp)
     238:	0017f793          	andi	a5,a5,1
     23c:	02078263          	beqz	a5,260 <.L4>
     240:	07f4f513          	andi	a0,s1,127

00000244 <.L5>:
     244:	01c12083          	lw	ra,28(sp)
     248:	01812403          	lw	s0,24(sp)
     24c:	01412483          	lw	s1,20(sp)
     250:	01012903          	lw	s2,16(sp)
     254:	00c12983          	lw	s3,12(sp)
     258:	02010113          	addi	sp,sp,32
     25c:	00008067          	ret

00000260 <.L4>:
     260:	4034d693          	srai	a3,s1,0x3
     264:	01100793          	li	a5,17
     268:	00f6f693          	andi	a3,a3,15
     26c:	02f686b3          	mul	a3,a3,a5
     270:	0074f613          	andi	a2,s1,7
     274:	0385d783          	lhu	a5,56(a1)
     278:	00050993          	mv	s3,a0
     27c:	00058413          	mv	s0,a1
     280:	01069713          	slli	a4,a3,0x10
     284:	41075713          	srai	a4,a4,0x10
     288:	02060c63          	beqz	a2,2c0 <.L6>
     28c:	00100693          	li	a3,1
     290:	00048913          	mv	s2,s1
     294:	06d61063          	bne	a2,a3,2f4 <.L8>
     298:	00078613          	mv	a2,a5
     29c:	00070593          	mv	a1,a4
     2a0:	02840513          	addi	a0,s0,40
     2a4:	47d000ef          	jal	f20 <core_bench_matrix>
     2a8:	03c45783          	lhu	a5,60(s0)
     2ac:	01051913          	slli	s2,a0,0x10
     2b0:	41095913          	srai	s2,s2,0x10
     2b4:	04079063          	bnez	a5,2f4 <.L8>
     2b8:	02a41e23          	sh	a0,60(s0)
     2bc:	0380006f          	j	2f4 <.L8>

000002c0 <.L6>:
     2c0:	02100613          	li	a2,33
     2c4:	00d66463          	bltu	a2,a3,2cc <.L9>
     2c8:	02200713          	li	a4,34

000002cc <.L9>:
     2cc:	00241683          	lh	a3,2(s0)
     2d0:	00041603          	lh	a2,0(s0)
     2d4:	01442583          	lw	a1,20(s0)
     2d8:	01842503          	lw	a0,24(s0)
     2dc:	741000ef          	jal	121c <core_bench_state>
     2e0:	03e45783          	lhu	a5,62(s0)
     2e4:	01051913          	slli	s2,a0,0x10
     2e8:	41095913          	srai	s2,s2,0x10
     2ec:	00079463          	bnez	a5,2f4 <.L8>
     2f0:	02a41f23          	sh	a0,62(s0)

000002f4 <.L8>:
     2f4:	03845583          	lhu	a1,56(s0)
     2f8:	01091513          	slli	a0,s2,0x10
     2fc:	01055513          	srli	a0,a0,0x10
     300:	1dc010ef          	jal	14dc <crcu16>
     304:	02a41c23          	sh	a0,56(s0)
     308:	f004f493          	andi	s1,s1,-256
     30c:	07f97513          	andi	a0,s2,127
     310:	009564b3          	or	s1,a0,s1
     314:	0804e493          	ori	s1,s1,128
     318:	00999023          	sh	s1,0(s3)
     31c:	f29ff06f          	j	244 <.L5>

00000320 <cmp_complex>:
     320:	fe010113          	addi	sp,sp,-32
     324:	00912a23          	sw	s1,20(sp)
     328:	00058493          	mv	s1,a1
     32c:	00060593          	mv	a1,a2
     330:	00112e23          	sw	ra,28(sp)
     334:	00812c23          	sw	s0,24(sp)
     338:	00c12623          	sw	a2,12(sp)
     33c:	eddff0ef          	jal	218 <calc_func>
     340:	00c12583          	lw	a1,12(sp)
     344:	00050413          	mv	s0,a0
     348:	00048513          	mv	a0,s1
     34c:	ecdff0ef          	jal	218 <calc_func>
     350:	01c12083          	lw	ra,28(sp)
     354:	40a40533          	sub	a0,s0,a0
     358:	01812403          	lw	s0,24(sp)
     35c:	01412483          	lw	s1,20(sp)
     360:	02010113          	addi	sp,sp,32
     364:	00008067          	ret

00000368 <copy_info>:
     368:	00059783          	lh	a5,0(a1)
     36c:	00f51023          	sh	a5,0(a0)
     370:	00259783          	lh	a5,2(a1)
     374:	00f51123          	sh	a5,2(a0)
     378:	00008067          	ret

0000037c <core_list_insert_new>:
     37c:	00050813          	mv	a6,a0
     380:	00062503          	lw	a0,0(a2)
     384:	00850893          	addi	a7,a0,8
     388:	04e8f463          	bgeu	a7,a4,3d0 <.L22>
     38c:	0006a703          	lw	a4,0(a3)
     390:	00470313          	addi	t1,a4,4
     394:	02f37e63          	bgeu	t1,a5,3d0 <.L22>
     398:	01162023          	sw	a7,0(a2)
     39c:	00082783          	lw	a5,0(a6)
     3a0:	00f52023          	sw	a5,0(a0)
     3a4:	00a82023          	sw	a0,0(a6)
     3a8:	00e52223          	sw	a4,4(a0)
     3ac:	0006a783          	lw	a5,0(a3)
     3b0:	00059703          	lh	a4,0(a1)
     3b4:	00478793          	addi	a5,a5,4
     3b8:	00f6a023          	sw	a5,0(a3)
     3bc:	00452783          	lw	a5,4(a0)
     3c0:	00e79023          	sh	a4,0(a5)
     3c4:	00259703          	lh	a4,2(a1)
     3c8:	00e79123          	sh	a4,2(a5)
     3cc:	00008067          	ret

000003d0 <.L22>:
     3d0:	00000513          	li	a0,0
     3d4:	00008067          	ret

000003d8 <core_list_remove>:
     3d8:	00050793          	mv	a5,a0
     3dc:	00052503          	lw	a0,0(a0)
     3e0:	0047a703          	lw	a4,4(a5)
     3e4:	00452683          	lw	a3,4(a0)
     3e8:	00d7a223          	sw	a3,4(a5)
     3ec:	00e52223          	sw	a4,4(a0)
     3f0:	00052703          	lw	a4,0(a0)
     3f4:	00e7a023          	sw	a4,0(a5)
     3f8:	00052023          	sw	zero,0(a0)
     3fc:	00008067          	ret

00000400 <core_list_undo_remove>:
     400:	0045a683          	lw	a3,4(a1)
     404:	00452703          	lw	a4,4(a0)
     408:	00d52223          	sw	a3,4(a0)
     40c:	00e5a223          	sw	a4,4(a1)
     410:	0005a703          	lw	a4,0(a1)
     414:	00e52023          	sw	a4,0(a0)
     418:	00a5a023          	sw	a0,0(a1)
     41c:	00008067          	ret

00000420 <core_list_find>:
     420:	00259783          	lh	a5,2(a1)
     424:	0207d063          	bgez	a5,444 <.L26>

00000428 <.L27>:
     428:	00050a63          	beqz	a0,43c <.L28>
     42c:	00452783          	lw	a5,4(a0)
     430:	00059703          	lh	a4,0(a1)
     434:	0007c783          	lbu	a5,0(a5)
     438:	02f71063          	bne	a4,a5,458 <.L30>

0000043c <.L28>:
     43c:	00008067          	ret

00000440 <.L29>:
     440:	00052503          	lw	a0,0(a0)

00000444 <.L26>:
     444:	fe050ce3          	beqz	a0,43c <.L28>
     448:	00452703          	lw	a4,4(a0)
     44c:	00271703          	lh	a4,2(a4)
     450:	fef718e3          	bne	a4,a5,440 <.L29>
     454:	00008067          	ret

00000458 <.L30>:
     458:	00052503          	lw	a0,0(a0)
     45c:	fcdff06f          	j	428 <.L27>

00000460 <core_list_reverse>:
     460:	00050793          	mv	a5,a0
     464:	00000513          	li	a0,0

00000468 <.L39>:
     468:	00079463          	bnez	a5,470 <.L40>
     46c:	00008067          	ret

00000470 <.L40>:
     470:	0007a703          	lw	a4,0(a5)
     474:	00a7a023          	sw	a0,0(a5)
     478:	00078513          	mv	a0,a5
     47c:	00070793          	mv	a5,a4
     480:	fe9ff06f          	j	468 <.L39>

00000484 <core_list_mergesort>:
     484:	fd010113          	addi	sp,sp,-48
     488:	01312e23          	sw	s3,28(sp)
     48c:	01512a23          	sw	s5,20(sp)
     490:	01712623          	sw	s7,12(sp)
     494:	01812423          	sw	s8,8(sp)
     498:	01a12023          	sw	s10,0(sp)
     49c:	02112623          	sw	ra,44(sp)
     4a0:	02812423          	sw	s0,40(sp)
     4a4:	02912223          	sw	s1,36(sp)
     4a8:	03212023          	sw	s2,32(sp)
     4ac:	01412c23          	sw	s4,24(sp)
     4b0:	01612823          	sw	s6,16(sp)
     4b4:	01912223          	sw	s9,4(sp)
     4b8:	00058b93          	mv	s7,a1
     4bc:	00060c13          	mv	s8,a2
     4c0:	00050993          	mv	s3,a0
     4c4:	00100a93          	li	s5,1
     4c8:	00100d13          	li	s10,1

000004cc <.L57>:
     4cc:	00098493          	mv	s1,s3
     4d0:	00000c93          	li	s9,0
     4d4:	00000b13          	li	s6,0
     4d8:	00000993          	li	s3,0

000004dc <.L42>:
     4dc:	00049a63          	bnez	s1,4f0 <.L55>
     4e0:	000b2023          	sw	zero,0(s6)
     4e4:	099d5c63          	bge	s10,s9,57c <.L63>
     4e8:	001a9a93          	slli	s5,s5,0x1
     4ec:	fe1ff06f          	j	4cc <.L57>

000004f0 <.L55>:
     4f0:	001c8c93          	addi	s9,s9,1
     4f4:	00048413          	mv	s0,s1
     4f8:	00000913          	li	s2,0

000004fc <.L43>:
     4fc:	01595863          	bge	s2,s5,50c <.L46>
     500:	00042403          	lw	s0,0(s0)
     504:	00190913          	addi	s2,s2,1
     508:	fe041ae3          	bnez	s0,4fc <.L43>

0000050c <.L46>:
     50c:	000a8a13          	mv	s4,s5

00000510 <.L44>:
     510:	03204463          	bgtz	s2,538 <.L52>
     514:	01405463          	blez	s4,51c <.L53>
     518:	00041663          	bnez	s0,524 <.L54>

0000051c <.L53>:
     51c:	00040493          	mv	s1,s0
     520:	fbdff06f          	j	4dc <.L42>

00000524 <.L54>:
     524:	02091c63          	bnez	s2,55c <.L47>

00000528 <.L50>:
     528:	00040793          	mv	a5,s0
     52c:	fffa0a13          	addi	s4,s4,-1
     530:	00042403          	lw	s0,0(s0)
     534:	0180006f          	j	54c <.L48>

00000538 <.L52>:
     538:	000a0463          	beqz	s4,540 <.L65>
     53c:	02041063          	bnez	s0,55c <.L47>

00000540 <.L65>:
     540:	00048793          	mv	a5,s1
     544:	0004a483          	lw	s1,0(s1)
     548:	fff90913          	addi	s2,s2,-1

0000054c <.L48>:
     54c:	020b0463          	beqz	s6,574 <.L58>
     550:	00fb2023          	sw	a5,0(s6)

00000554 <.L51>:
     554:	00078b13          	mv	s6,a5
     558:	fb9ff06f          	j	510 <.L44>

0000055c <.L47>:
     55c:	00442583          	lw	a1,4(s0)
     560:	0044a503          	lw	a0,4(s1)
     564:	000c0613          	mv	a2,s8
     568:	000b80e7          	jalr	s7
     56c:	faa04ee3          	bgtz	a0,528 <.L50>
     570:	fd1ff06f          	j	540 <.L65>

00000574 <.L58>:
     574:	00078993          	mv	s3,a5
     578:	fddff06f          	j	554 <.L51>

0000057c <.L63>:
     57c:	02c12083          	lw	ra,44(sp)
     580:	02812403          	lw	s0,40(sp)
     584:	02412483          	lw	s1,36(sp)
     588:	02012903          	lw	s2,32(sp)
     58c:	01812a03          	lw	s4,24(sp)
     590:	01412a83          	lw	s5,20(sp)
     594:	01012b03          	lw	s6,16(sp)
     598:	00c12b83          	lw	s7,12(sp)
     59c:	00812c03          	lw	s8,8(sp)
     5a0:	00412c83          	lw	s9,4(sp)
     5a4:	00012d03          	lw	s10,0(sp)
     5a8:	00098513          	mv	a0,s3
     5ac:	01c12983          	lw	s3,28(sp)
     5b0:	03010113          	addi	sp,sp,48
     5b4:	00008067          	ret

000005b8 <core_bench_list>:
     5b8:	fb010113          	addi	sp,sp,-80
     5bc:	04812423          	sw	s0,72(sp)
     5c0:	03812423          	sw	s8,40(sp)
     5c4:	02452403          	lw	s0,36(a0)
     5c8:	00451c03          	lh	s8,4(a0)
     5cc:	04912223          	sw	s1,68(sp)
     5d0:	05212023          	sw	s2,64(sp)
     5d4:	03412c23          	sw	s4,56(sp)
     5d8:	03512a23          	sw	s5,52(sp)
     5dc:	03612823          	sw	s6,48(sp)
     5e0:	03712623          	sw	s7,44(sp)
     5e4:	04112623          	sw	ra,76(sp)
     5e8:	03312e23          	sw	s3,60(sp)
     5ec:	00050613          	mv	a2,a0
     5f0:	00058b13          	mv	s6,a1
     5f4:	00b11f23          	sh	a1,30(sp)
     5f8:	00000a93          	li	s5,0
     5fc:	00000b93          	li	s7,0
     600:	00000913          	li	s2,0
     604:	00000493          	li	s1,0
     608:	01c10a13          	addi	s4,sp,28

0000060c <.L67>:
     60c:	0d8ac663          	blt	s5,s8,6d8 <.L73>
     610:	00291913          	slli	s2,s2,0x2
     614:	41790933          	sub	s2,s2,s7
     618:	012484b3          	add	s1,s1,s2
     61c:	01049493          	slli	s1,s1,0x10
     620:	0104d493          	srli	s1,s1,0x10
     624:	01605c63          	blez	s6,63c <.L74>
     628:	00040513          	mv	a0,s0
     62c:	00000597          	auipc	a1,0x0
     630:	cf458593          	addi	a1,a1,-780 # 320 <cmp_complex>
     634:	e51ff0ef          	jal	484 <core_list_mergesort>
     638:	00050413          	mv	s0,a0

0000063c <.L74>:
     63c:	00042503          	lw	a0,0(s0)
     640:	d99ff0ef          	jal	3d8 <core_list_remove>
     644:	00050993          	mv	s3,a0
     648:	000a0593          	mv	a1,s4
     64c:	00040513          	mv	a0,s0
     650:	dd1ff0ef          	jal	420 <core_list_find>
     654:	00050913          	mv	s2,a0
     658:	14051463          	bnez	a0,7a0 <.L77>
     65c:	00042903          	lw	s2,0(s0)

00000660 <.L76>:
     660:	14091063          	bnez	s2,7a0 <.L77>
     664:	00042783          	lw	a5,0(s0)
     668:	0049a703          	lw	a4,4(s3)
     66c:	00040513          	mv	a0,s0
     670:	0047a683          	lw	a3,4(a5)
     674:	00000613          	li	a2,0
     678:	00000597          	auipc	a1,0x0
     67c:	b5458593          	addi	a1,a1,-1196 # 1cc <cmp_idx>
     680:	00d9a223          	sw	a3,4(s3)
     684:	00e7a223          	sw	a4,4(a5)
     688:	0007a703          	lw	a4,0(a5)
     68c:	00e9a023          	sw	a4,0(s3)
     690:	0137a023          	sw	s3,0(a5)
     694:	df1ff0ef          	jal	484 <core_list_mergesort>
     698:	00052903          	lw	s2,0(a0)
     69c:	00050413          	mv	s0,a0

000006a0 <.L78>:
     6a0:	10091e63          	bnez	s2,7bc <.L79>
     6a4:	04c12083          	lw	ra,76(sp)
     6a8:	04812403          	lw	s0,72(sp)
     6ac:	04012903          	lw	s2,64(sp)
     6b0:	03c12983          	lw	s3,60(sp)
     6b4:	03812a03          	lw	s4,56(sp)
     6b8:	03412a83          	lw	s5,52(sp)
     6bc:	03012b03          	lw	s6,48(sp)
     6c0:	02c12b83          	lw	s7,44(sp)
     6c4:	02812c03          	lw	s8,40(sp)
     6c8:	00048513          	mv	a0,s1
     6cc:	04412483          	lw	s1,68(sp)
     6d0:	05010113          	addi	sp,sp,80
     6d4:	00008067          	ret

000006d8 <.L73>:
     6d8:	0ffaf793          	zext.b	a5,s5
     6dc:	000a0593          	mv	a1,s4
     6e0:	00040513          	mv	a0,s0
     6e4:	00c12623          	sw	a2,12(sp)
     6e8:	00f11e23          	sh	a5,28(sp)
     6ec:	d35ff0ef          	jal	420 <core_list_find>
     6f0:	00050993          	mv	s3,a0
     6f4:	00040513          	mv	a0,s0
     6f8:	d69ff0ef          	jal	460 <core_list_reverse>
     6fc:	00c12603          	lw	a2,12(sp)
     700:	00050413          	mv	s0,a0
     704:	04099663          	bnez	s3,750 <.L68>
     708:	00052783          	lw	a5,0(a0)
     70c:	001b8b93          	addi	s7,s7,1
     710:	010b9b93          	slli	s7,s7,0x10
     714:	0047a783          	lw	a5,4(a5)
     718:	010bdb93          	srli	s7,s7,0x10
     71c:	00178783          	lb	a5,1(a5)
     720:	0017f793          	andi	a5,a5,1
     724:	00f484b3          	add	s1,s1,a5
     728:	01049493          	slli	s1,s1,0x10
     72c:	0104d493          	srli	s1,s1,0x10

00000730 <.L69>:
     730:	01e11783          	lh	a5,30(sp)
     734:	0007c663          	bltz	a5,740 <.L72>
     738:	00178793          	addi	a5,a5,1
     73c:	00f11f23          	sh	a5,30(sp)

00000740 <.L72>:
     740:	001a8793          	addi	a5,s5,1
     744:	01079a93          	slli	s5,a5,0x10
     748:	410ada93          	srai	s5,s5,0x10
     74c:	ec1ff06f          	j	60c <.L67>

00000750 <.L68>:
     750:	0049a783          	lw	a5,4(s3)
     754:	00079783          	lh	a5,0(a5)
     758:	0017f713          	andi	a4,a5,1
     75c:	00070c63          	beqz	a4,774 <.L70>
     760:	4097d793          	srai	a5,a5,0x9
     764:	0017f793          	andi	a5,a5,1
     768:	00f487b3          	add	a5,s1,a5
     76c:	01079493          	slli	s1,a5,0x10
     770:	0104d493          	srli	s1,s1,0x10

00000774 <.L70>:
     774:	0009a783          	lw	a5,0(s3)
     778:	00078c63          	beqz	a5,790 <.L71>
     77c:	0007a703          	lw	a4,0(a5)
     780:	00e9a023          	sw	a4,0(s3)
     784:	00042703          	lw	a4,0(s0)
     788:	00e7a023          	sw	a4,0(a5)
     78c:	00f42023          	sw	a5,0(s0)

00000790 <.L71>:
     790:	00190913          	addi	s2,s2,1
     794:	01091913          	slli	s2,s2,0x10
     798:	01095913          	srli	s2,s2,0x10
     79c:	f95ff06f          	j	730 <.L69>

000007a0 <.L77>:
     7a0:	00442783          	lw	a5,4(s0)
     7a4:	00048593          	mv	a1,s1
     7a8:	00079503          	lh	a0,0(a5)
     7ac:	595000ef          	jal	1540 <crc16>
     7b0:	00050493          	mv	s1,a0
     7b4:	00092903          	lw	s2,0(s2)
     7b8:	ea9ff06f          	j	660 <.L76>

000007bc <.L79>:
     7bc:	00442783          	lw	a5,4(s0)
     7c0:	00048593          	mv	a1,s1
     7c4:	00079503          	lh	a0,0(a5)
     7c8:	579000ef          	jal	1540 <crc16>
     7cc:	00050493          	mv	s1,a0
     7d0:	00092903          	lw	s2,0(s2)
     7d4:	ecdff06f          	j	6a0 <.L78>

000007d8 <core_list_init>:
     7d8:	01400793          	li	a5,20
     7dc:	02f55533          	divu	a0,a0,a5
     7e0:	fb010113          	addi	sp,sp,-80
     7e4:	04912223          	sw	s1,68(sp)
     7e8:	05212023          	sw	s2,64(sp)
     7ec:	04812423          	sw	s0,72(sp)
     7f0:	03312e23          	sw	s3,60(sp)
     7f4:	03412c23          	sw	s4,56(sp)
     7f8:	03512a23          	sw	s5,52(sp)
     7fc:	03612823          	sw	s6,48(sp)
     800:	03712623          	sw	s7,44(sp)
     804:	03812423          	sw	s8,40(sp)
     808:	03912223          	sw	s9,36(sp)
     80c:	04112623          	sw	ra,76(sp)
     810:	ffff87b7          	lui	a5,0xffff8
     814:	0005a023          	sw	zero,0(a1)
     818:	08078793          	addi	a5,a5,128 # ffff8080 <_ebss+0xfffcd5b0>
     81c:	00058413          	mv	s0,a1
     820:	01810a93          	addi	s5,sp,24
     824:	00c10b13          	addi	s6,sp,12
     828:	01c10b93          	addi	s7,sp,28
     82c:	00060993          	mv	s3,a2
     830:	000a8693          	mv	a3,s5
     834:	000b0613          	mv	a2,s6
     838:	00000c13          	li	s8,0
     83c:	10100c93          	li	s9,257
     840:	ffe50493          	addi	s1,a0,-2
     844:	00349913          	slli	s2,s1,0x3
     848:	01258933          	add	s2,a1,s2
     84c:	0125a223          	sw	s2,4(a1)
     850:	00f91023          	sh	a5,0(s2)
     854:	00858793          	addi	a5,a1,8
     858:	00f12623          	sw	a5,12(sp)
     85c:	00490793          	addi	a5,s2,4
     860:	00f12c23          	sw	a5,24(sp)
     864:	00249a13          	slli	s4,s1,0x2
     868:	800007b7          	lui	a5,0x80000
     86c:	fff78793          	addi	a5,a5,-1 # 7fffffff <_ebss+0x7ffd552f>
     870:	01490a33          	add	s4,s2,s4
     874:	00f12e23          	sw	a5,28(sp)
     878:	00091123          	sh	zero,2(s2)
     87c:	000a0793          	mv	a5,s4
     880:	00090713          	mv	a4,s2
     884:	000b8593          	mv	a1,s7
     888:	00040513          	mv	a0,s0
     88c:	af1ff0ef          	jal	37c <core_list_insert_new>

00000890 <.L88>:
     890:	069c6663          	bltu	s8,s1,8fc <.L89>
     894:	00042783          	lw	a5,0(s0)
     898:	00500713          	li	a4,5
     89c:	00004637          	lui	a2,0x4
     8a0:	02e4d4b3          	divu	s1,s1,a4
     8a4:	fff60613          	addi	a2,a2,-1 # 3fff <.L7+0x3>
     8a8:	00100713          	li	a4,1

000008ac <.L90>:
     8ac:	0007a583          	lw	a1,0(a5)
     8b0:	08059a63          	bnez	a1,944 <.L93>
     8b4:	00040513          	mv	a0,s0
     8b8:	00000613          	li	a2,0
     8bc:	00000597          	auipc	a1,0x0
     8c0:	91058593          	addi	a1,a1,-1776 # 1cc <cmp_idx>
     8c4:	bc1ff0ef          	jal	484 <core_list_mergesort>
     8c8:	04c12083          	lw	ra,76(sp)
     8cc:	04812403          	lw	s0,72(sp)
     8d0:	04412483          	lw	s1,68(sp)
     8d4:	04012903          	lw	s2,64(sp)
     8d8:	03c12983          	lw	s3,60(sp)
     8dc:	03812a03          	lw	s4,56(sp)
     8e0:	03412a83          	lw	s5,52(sp)
     8e4:	03012b03          	lw	s6,48(sp)
     8e8:	02c12b83          	lw	s7,44(sp)
     8ec:	02812c03          	lw	s8,40(sp)
     8f0:	02412c83          	lw	s9,36(sp)
     8f4:	05010113          	addi	sp,sp,80
     8f8:	00008067          	ret

000008fc <.L89>:
     8fc:	010c1793          	slli	a5,s8,0x10
     900:	0107d793          	srli	a5,a5,0x10
     904:	0137c733          	xor	a4,a5,s3
     908:	00371713          	slli	a4,a4,0x3
     90c:	0077f793          	andi	a5,a5,7
     910:	07877713          	andi	a4,a4,120
     914:	00f76733          	or	a4,a4,a5
     918:	03970733          	mul	a4,a4,s9
     91c:	000a0793          	mv	a5,s4
     920:	000a8693          	mv	a3,s5
     924:	000b0613          	mv	a2,s6
     928:	000b8593          	mv	a1,s7
     92c:	00040513          	mv	a0,s0
     930:	001c0c13          	addi	s8,s8,1
     934:	00e11e23          	sh	a4,28(sp)
     938:	00090713          	mv	a4,s2
     93c:	a41ff0ef          	jal	37c <core_list_insert_new>
     940:	f51ff06f          	j	890 <.L88>

00000944 <.L93>:
     944:	0047a503          	lw	a0,4(a5)
     948:	01071793          	slli	a5,a4,0x10
     94c:	02976463          	bltu	a4,s1,974 <.L95>
     950:	01071693          	slli	a3,a4,0x10
     954:	0106d693          	srli	a3,a3,0x10
     958:	00168793          	addi	a5,a3,1
     95c:	00879793          	slli	a5,a5,0x8
     960:	7007f793          	andi	a5,a5,1792
     964:	0136c6b3          	xor	a3,a3,s3
     968:	00d7e7b3          	or	a5,a5,a3
     96c:	00c7f7b3          	and	a5,a5,a2
     970:	01079793          	slli	a5,a5,0x10

00000974 <.L95>:
     974:	4107d793          	srai	a5,a5,0x10
     978:	00f51123          	sh	a5,2(a0)
     97c:	00170713          	addi	a4,a4,1
     980:	00058793          	mv	a5,a1
     984:	f29ff06f          	j	8ac <.L90>

00000988 <iterate>:
     988:	ff010113          	addi	sp,sp,-16
     98c:	01212023          	sw	s2,0(sp)
     990:	01c52903          	lw	s2,28(a0)
     994:	00812423          	sw	s0,8(sp)
     998:	00912223          	sw	s1,4(sp)
     99c:	00112623          	sw	ra,12(sp)
     9a0:	00050413          	mv	s0,a0
     9a4:	02052c23          	sw	zero,56(a0)
     9a8:	02052e23          	sw	zero,60(a0)
     9ac:	00000493          	li	s1,0

000009b0 <.L2>:
     9b0:	03249063          	bne	s1,s2,9d0 <.L4>
     9b4:	00c12083          	lw	ra,12(sp)
     9b8:	00812403          	lw	s0,8(sp)
     9bc:	00412483          	lw	s1,4(sp)
     9c0:	00012903          	lw	s2,0(sp)
     9c4:	00000513          	li	a0,0
     9c8:	01010113          	addi	sp,sp,16
     9cc:	00008067          	ret

000009d0 <.L4>:
     9d0:	00100593          	li	a1,1
     9d4:	00040513          	mv	a0,s0
     9d8:	be1ff0ef          	jal	5b8 <core_bench_list>
     9dc:	03845583          	lhu	a1,56(s0)
     9e0:	2fd000ef          	jal	14dc <crcu16>
     9e4:	02a41c23          	sh	a0,56(s0)
     9e8:	fff00593          	li	a1,-1
     9ec:	00040513          	mv	a0,s0
     9f0:	bc9ff0ef          	jal	5b8 <core_bench_list>
     9f4:	03845583          	lhu	a1,56(s0)
     9f8:	2e5000ef          	jal	14dc <crcu16>
     9fc:	02a41c23          	sh	a0,56(s0)
     a00:	00049463          	bnez	s1,a08 <.L3>
     a04:	02a41d23          	sh	a0,58(s0)

00000a08 <.L3>:
     a08:	00148493          	addi	s1,s1,1
     a0c:	fa5ff06f          	j	9b0 <.L2>

00000a10 <core_init_matrix>:
     a10:	06060c63          	beqz	a2,a88 <.L9>

00000a14 <.L2>:
     a14:	00000713          	li	a4,0
     a18:	00000793          	li	a5,0
     a1c:	0100006f          	j	a2c <.L4>

00000a20 <.L5>:
     a20:	00178793          	addi	a5,a5,1
     a24:	02f78733          	mul	a4,a5,a5
     a28:	00371713          	slli	a4,a4,0x3

00000a2c <.L4>:
     a2c:	fea76ae3          	bltu	a4,a0,a20 <.L5>
     a30:	fff78513          	addi	a0,a5,-1
     a34:	02a50333          	mul	t1,a0,a0
     a38:	fff58713          	addi	a4,a1,-1
     a3c:	ffc77713          	andi	a4,a4,-4
     a40:	00470713          	addi	a4,a4,4
     a44:	00000e93          	li	t4,0
     a48:	00000e13          	li	t3,0
     a4c:	00100593          	li	a1,1
     a50:	000102b7          	lui	t0,0x10
     a54:	00131313          	slli	t1,t1,0x1
     a58:	006707b3          	add	a5,a4,t1
     a5c:	406003b3          	neg	t2,t1
     a60:	0aaeec63          	bltu	t4,a0,b18 <.L15>
     a64:	00f6a423          	sw	a5,8(a3)
     a68:	006787b3          	add	a5,a5,t1
     a6c:	fff78793          	addi	a5,a5,-1
     a70:	ffc7f793          	andi	a5,a5,-4
     a74:	00478793          	addi	a5,a5,4
     a78:	00e6a223          	sw	a4,4(a3)
     a7c:	00f6a623          	sw	a5,12(a3)
     a80:	00a6a023          	sw	a0,0(a3)
     a84:	00008067          	ret

00000a88 <.L9>:
     a88:	00100613          	li	a2,1
     a8c:	f89ff06f          	j	a14 <.L2>

00000a90 <.L7>:
     a90:	02b60633          	mul	a2,a2,a1
     a94:	01059f93          	slli	t6,a1,0x10
     a98:	010fdf93          	srli	t6,t6,0x10
     a9c:	01138433          	add	s0,t2,a7
     aa0:	00158593          	addi	a1,a1,1
     aa4:	00288893          	addi	a7,a7,2
     aa8:	02566633          	rem	a2,a2,t0
     aac:	00cf8833          	add	a6,t6,a2
     ab0:	01081813          	slli	a6,a6,0x10
     ab4:	01085813          	srli	a6,a6,0x10
     ab8:	ff089f23          	sh	a6,-2(a7)
     abc:	01f80833          	add	a6,a6,t6
     ac0:	0ff87813          	zext.b	a6,a6
     ac4:	01041023          	sh	a6,0(s0)
     ac8:	fcbf14e3          	bne	t5,a1,a90 <.L7>
     acc:	001e8e93          	addi	t4,t4,1
     ad0:	00ae0e33          	add	t3,t3,a0
     ad4:	000f0593          	mv	a1,t5
     ad8:	00aefa63          	bgeu	t4,a0,aec <.L8>

00000adc <.L13>:
     adc:	001e1893          	slli	a7,t3,0x1
     ae0:	00f888b3          	add	a7,a7,a5
     ae4:	00a58f33          	add	t5,a1,a0
     ae8:	fa9ff06f          	j	a90 <.L7>

00000aec <.L8>:
     aec:	00f6a423          	sw	a5,8(a3)
     af0:	006787b3          	add	a5,a5,t1
     af4:	fff78793          	addi	a5,a5,-1
     af8:	00c12403          	lw	s0,12(sp)
     afc:	ffc7f793          	andi	a5,a5,-4
     b00:	00478793          	addi	a5,a5,4
     b04:	00e6a223          	sw	a4,4(a3)
     b08:	00f6a623          	sw	a5,12(a3)
     b0c:	00a6a023          	sw	a0,0(a3)
     b10:	01010113          	addi	sp,sp,16
     b14:	00008067          	ret

00000b18 <.L15>:
     b18:	ff010113          	addi	sp,sp,-16
     b1c:	00812623          	sw	s0,12(sp)
     b20:	fbdff06f          	j	adc <.L13>

00000b24 <matrix_sum>:
     b24:	00050693          	mv	a3,a0
     b28:	00000e13          	li	t3,0
     b2c:	00000e93          	li	t4,0
     b30:	00000513          	li	a0,0
     b34:	00000893          	li	a7,0
     b38:	00000813          	li	a6,0

00000b3c <.L18>:
     b3c:	06de8263          	beq	t4,a3,ba0 <.L22>
     b40:	002e1713          	slli	a4,t3,0x2
     b44:	00e58733          	add	a4,a1,a4
     b48:	00000313          	li	t1,0

00000b4c <.L21>:
     b4c:	00088f13          	mv	t5,a7
     b50:	00072883          	lw	a7,0(a4)
     b54:	01051793          	slli	a5,a0,0x10
     b58:	0107d793          	srli	a5,a5,0x10
     b5c:	01180833          	add	a6,a6,a7
     b60:	03065663          	bge	a2,a6,b8c <.L19>
     b64:	00a78793          	addi	a5,a5,10
     b68:	01079513          	slli	a0,a5,0x10
     b6c:	41055513          	srai	a0,a0,0x10
     b70:	00000813          	li	a6,0

00000b74 <.L20>:
     b74:	00130313          	addi	t1,t1,1
     b78:	00470713          	addi	a4,a4,4
     b7c:	fc6698e3          	bne	a3,t1,b4c <.L21>
     b80:	001e8e93          	addi	t4,t4,1
     b84:	00de0e33          	add	t3,t3,a3
     b88:	fb5ff06f          	j	b3c <.L18>

00000b8c <.L19>:
     b8c:	011f2f33          	slt	t5,t5,a7
     b90:	01e787b3          	add	a5,a5,t5
     b94:	01079513          	slli	a0,a5,0x10
     b98:	41055513          	srai	a0,a0,0x10
     b9c:	fd9ff06f          	j	b74 <.L20>

00000ba0 <.L22>:
     ba0:	00008067          	ret

00000ba4 <matrix_mul_const>:
     ba4:	00000813          	li	a6,0
     ba8:	00000893          	li	a7,0

00000bac <.L25>:
     bac:	00a89463          	bne	a7,a0,bb4 <.L27>
     bb0:	00008067          	ret

00000bb4 <.L27>:
     bb4:	00181713          	slli	a4,a6,0x1
     bb8:	00281793          	slli	a5,a6,0x2
     bbc:	00e60733          	add	a4,a2,a4
     bc0:	00f587b3          	add	a5,a1,a5
     bc4:	00000313          	li	t1,0

00000bc8 <.L26>:
     bc8:	00071e03          	lh	t3,0(a4)
     bcc:	00130313          	addi	t1,t1,1
     bd0:	00270713          	addi	a4,a4,2
     bd4:	02de0e33          	mul	t3,t3,a3
     bd8:	00478793          	addi	a5,a5,4
     bdc:	ffc7ae23          	sw	t3,-4(a5)
     be0:	fe6514e3          	bne	a0,t1,bc8 <.L26>
     be4:	00188893          	addi	a7,a7,1
     be8:	00a80833          	add	a6,a6,a0
     bec:	fc1ff06f          	j	bac <.L25>

00000bf0 <matrix_add_const>:
     bf0:	00000693          	li	a3,0
     bf4:	00000713          	li	a4,0

00000bf8 <.L30>:
     bf8:	00a71463          	bne	a4,a0,c00 <.L32>
     bfc:	00008067          	ret

00000c00 <.L32>:
     c00:	00169793          	slli	a5,a3,0x1
     c04:	00f587b3          	add	a5,a1,a5
     c08:	00000813          	li	a6,0

00000c0c <.L31>:
     c0c:	0007d883          	lhu	a7,0(a5)
     c10:	00180813          	addi	a6,a6,1
     c14:	00278793          	addi	a5,a5,2
     c18:	00c888b3          	add	a7,a7,a2
     c1c:	ff179f23          	sh	a7,-2(a5)
     c20:	ff0516e3          	bne	a0,a6,c0c <.L31>
     c24:	00170713          	addi	a4,a4,1
     c28:	00a686b3          	add	a3,a3,a0
     c2c:	fcdff06f          	j	bf8 <.L30>

00000c30 <matrix_mul_vect>:
     c30:	00151e93          	slli	t4,a0,0x1
     c34:	00000813          	li	a6,0
     c38:	00000713          	li	a4,0

00000c3c <.L35>:
     c3c:	00a71463          	bne	a4,a0,c44 <.L37>
     c40:	00008067          	ret

00000c44 <.L37>:
     c44:	00181e13          	slli	t3,a6,0x1
     c48:	01c60e33          	add	t3,a2,t3
     c4c:	00000793          	li	a5,0
     c50:	00000893          	li	a7,0

00000c54 <.L36>:
     c54:	00fe0333          	add	t1,t3,a5
     c58:	00f68f33          	add	t5,a3,a5
     c5c:	00031303          	lh	t1,0(t1)
     c60:	000f1f03          	lh	t5,0(t5)
     c64:	00278793          	addi	a5,a5,2
     c68:	03e30333          	mul	t1,t1,t5
     c6c:	006888b3          	add	a7,a7,t1
     c70:	fefe92e3          	bne	t4,a5,c54 <.L36>
     c74:	00271793          	slli	a5,a4,0x2
     c78:	00f587b3          	add	a5,a1,a5
     c7c:	0117a023          	sw	a7,0(a5)
     c80:	00170713          	addi	a4,a4,1
     c84:	00a80833          	add	a6,a6,a0
     c88:	fb5ff06f          	j	c3c <.L35>

00000c8c <matrix_mul_matrix>:
     c8c:	00000e13          	li	t3,0
     c90:	00151393          	slli	t2,a0,0x1
     c94:	00000813          	li	a6,0
     c98:	00ae1863          	bne	t3,a0,ca8 <.L48>
     c9c:	00008067          	ret

00000ca0 <.L44>:
     ca0:	00070893          	mv	a7,a4
     ca4:	0200006f          	j	cc4 <.L42>

00000ca8 <.L48>:
     ca8:	ff010113          	addi	sp,sp,-16
     cac:	00812623          	sw	s0,12(sp)

00000cb0 <.L43>:
     cb0:	00281793          	slli	a5,a6,0x2
     cb4:	00181f13          	slli	t5,a6,0x1
     cb8:	00f587b3          	add	a5,a1,a5
     cbc:	01e60f33          	add	t5,a2,t5
     cc0:	00000893          	li	a7,0

00000cc4 <.L42>:
     cc4:	00189713          	slli	a4,a7,0x1
     cc8:	00e68733          	add	a4,a3,a4
     ccc:	000f0f93          	mv	t6,t5
     cd0:	00000e93          	li	t4,0
     cd4:	00000313          	li	t1,0

00000cd8 <.L41>:
     cd8:	000f9283          	lh	t0,0(t6)
     cdc:	00071403          	lh	s0,0(a4)
     ce0:	002f8f93          	addi	t6,t6,2
     ce4:	00770733          	add	a4,a4,t2
     ce8:	028282b3          	mul	t0,t0,s0
     cec:	005e8eb3          	add	t4,t4,t0
     cf0:	00030293          	mv	t0,t1
     cf4:	00130313          	addi	t1,t1,1
     cf8:	fe6510e3          	bne	a0,t1,cd8 <.L41>
     cfc:	01d7a023          	sw	t4,0(a5)
     d00:	00188713          	addi	a4,a7,1
     d04:	00478793          	addi	a5,a5,4
     d08:	f8589ce3          	bne	a7,t0,ca0 <.L44>
     d0c:	001e0e13          	addi	t3,t3,1
     d10:	00a80833          	add	a6,a6,a0
     d14:	f8ae1ee3          	bne	t3,a0,cb0 <.L43>
     d18:	00c12403          	lw	s0,12(sp)
     d1c:	01010113          	addi	sp,sp,16
     d20:	00008067          	ret

00000d24 <matrix_mul_matrix_bitextract>:
     d24:	ff010113          	addi	sp,sp,-16
     d28:	00812623          	sw	s0,12(sp)
     d2c:	00000313          	li	t1,0
     d30:	00151413          	slli	s0,a0,0x1
     d34:	00000f13          	li	t5,0

00000d38 <.L50>:
     d38:	00af1863          	bne	t5,a0,d48 <.L53>
     d3c:	00c12403          	lw	s0,12(sp)
     d40:	01010113          	addi	sp,sp,16
     d44:	00008067          	ret

00000d48 <.L53>:
     d48:	00231713          	slli	a4,t1,0x2
     d4c:	00131293          	slli	t0,t1,0x1
     d50:	00e58733          	add	a4,a1,a4
     d54:	005602b3          	add	t0,a2,t0
     d58:	00000e13          	li	t3,0

00000d5c <.L52>:
     d5c:	001e1813          	slli	a6,t3,0x1
     d60:	01068833          	add	a6,a3,a6
     d64:	00028393          	mv	t2,t0
     d68:	00000f93          	li	t6,0
     d6c:	00000e93          	li	t4,0

00000d70 <.L51>:
     d70:	00081883          	lh	a7,0(a6)
     d74:	00039783          	lh	a5,0(t2)
     d78:	00880833          	add	a6,a6,s0
     d7c:	00238393          	addi	t2,t2,2
     d80:	031787b3          	mul	a5,a5,a7
     d84:	4027d893          	srai	a7,a5,0x2
     d88:	4057d793          	srai	a5,a5,0x5
     d8c:	00f8f893          	andi	a7,a7,15
     d90:	07f7f793          	andi	a5,a5,127
     d94:	02f887b3          	mul	a5,a7,a5
     d98:	00ff8fb3          	add	t6,t6,a5
     d9c:	000e8793          	mv	a5,t4
     da0:	001e8e93          	addi	t4,t4,1
     da4:	fdd516e3          	bne	a0,t4,d70 <.L51>
     da8:	01f72023          	sw	t6,0(a4)
     dac:	001e0813          	addi	a6,t3,1
     db0:	00470713          	addi	a4,a4,4
     db4:	00fe1863          	bne	t3,a5,dc4 <.L54>
     db8:	001f0f13          	addi	t5,t5,1
     dbc:	00a30333          	add	t1,t1,a0
     dc0:	f79ff06f          	j	d38 <.L50>

00000dc4 <.L54>:
     dc4:	00080e13          	mv	t3,a6
     dc8:	f95ff06f          	j	d5c <.L52>

00000dcc <matrix_test>:
     dcc:	fe010113          	addi	sp,sp,-32
     dd0:	01212823          	sw	s2,16(sp)
     dd4:	00060913          	mv	s2,a2
     dd8:	00912a23          	sw	s1,20(sp)
     ddc:	00070613          	mv	a2,a4
     de0:	01412423          	sw	s4,8(sp)
     de4:	00058493          	mv	s1,a1
     de8:	fffffa37          	lui	s4,0xfffff
     dec:	00090593          	mv	a1,s2
     df0:	00112e23          	sw	ra,28(sp)
     df4:	01476a33          	or	s4,a4,s4
     df8:	00812c23          	sw	s0,24(sp)
     dfc:	01312623          	sw	s3,12(sp)
     e00:	01512223          	sw	s5,4(sp)
     e04:	00070993          	mv	s3,a4
     e08:	01612023          	sw	s6,0(sp)
     e0c:	00050413          	mv	s0,a0
     e10:	00068a93          	mv	s5,a3
     e14:	dddff0ef          	jal	bf0 <matrix_add_const>
     e18:	00098693          	mv	a3,s3
     e1c:	00090613          	mv	a2,s2
     e20:	00048593          	mv	a1,s1
     e24:	00040513          	mv	a0,s0
     e28:	d7dff0ef          	jal	ba4 <matrix_mul_const>
     e2c:	000a0613          	mv	a2,s4
     e30:	00048593          	mv	a1,s1
     e34:	00040513          	mv	a0,s0
     e38:	cedff0ef          	jal	b24 <matrix_sum>
     e3c:	00000593          	li	a1,0
     e40:	700000ef          	jal	1540 <crc16>
     e44:	000a8693          	mv	a3,s5
     e48:	00050b13          	mv	s6,a0
     e4c:	00090613          	mv	a2,s2
     e50:	00048593          	mv	a1,s1
     e54:	00040513          	mv	a0,s0
     e58:	dd9ff0ef          	jal	c30 <matrix_mul_vect>
     e5c:	000a0613          	mv	a2,s4
     e60:	00048593          	mv	a1,s1
     e64:	00040513          	mv	a0,s0
     e68:	cbdff0ef          	jal	b24 <matrix_sum>
     e6c:	000b0593          	mv	a1,s6
     e70:	6d0000ef          	jal	1540 <crc16>
     e74:	000a8693          	mv	a3,s5
     e78:	00050b13          	mv	s6,a0
     e7c:	00090613          	mv	a2,s2
     e80:	00048593          	mv	a1,s1
     e84:	00040513          	mv	a0,s0
     e88:	e05ff0ef          	jal	c8c <matrix_mul_matrix>
     e8c:	000a0613          	mv	a2,s4
     e90:	00048593          	mv	a1,s1
     e94:	00040513          	mv	a0,s0
     e98:	c8dff0ef          	jal	b24 <matrix_sum>
     e9c:	000b0593          	mv	a1,s6
     ea0:	6a0000ef          	jal	1540 <crc16>
     ea4:	000a8693          	mv	a3,s5
     ea8:	00050b13          	mv	s6,a0
     eac:	00090613          	mv	a2,s2
     eb0:	00048593          	mv	a1,s1
     eb4:	00040513          	mv	a0,s0
     eb8:	e6dff0ef          	jal	d24 <matrix_mul_matrix_bitextract>
     ebc:	000a0613          	mv	a2,s4
     ec0:	00048593          	mv	a1,s1
     ec4:	00040513          	mv	a0,s0
     ec8:	c5dff0ef          	jal	b24 <matrix_sum>
     ecc:	000b0593          	mv	a1,s6
     ed0:	670000ef          	jal	1540 <crc16>
     ed4:	41300633          	neg	a2,s3
     ed8:	01061613          	slli	a2,a2,0x10
     edc:	00050493          	mv	s1,a0
     ee0:	00090593          	mv	a1,s2
     ee4:	00040513          	mv	a0,s0
     ee8:	41065613          	srai	a2,a2,0x10
     eec:	d05ff0ef          	jal	bf0 <matrix_add_const>
     ef0:	01c12083          	lw	ra,28(sp)
     ef4:	01812403          	lw	s0,24(sp)
     ef8:	01049513          	slli	a0,s1,0x10
     efc:	01012903          	lw	s2,16(sp)
     f00:	01412483          	lw	s1,20(sp)
     f04:	00c12983          	lw	s3,12(sp)
     f08:	00812a03          	lw	s4,8(sp)
     f0c:	00412a83          	lw	s5,4(sp)
     f10:	00012b03          	lw	s6,0(sp)
     f14:	41055513          	srai	a0,a0,0x10
     f18:	02010113          	addi	sp,sp,32
     f1c:	00008067          	ret

00000f20 <core_bench_matrix>:
     f20:	ff010113          	addi	sp,sp,-16
     f24:	00812423          	sw	s0,8(sp)
     f28:	00852683          	lw	a3,8(a0)
     f2c:	00060413          	mv	s0,a2
     f30:	00058713          	mv	a4,a1
     f34:	00452603          	lw	a2,4(a0)
     f38:	00c52583          	lw	a1,12(a0)
     f3c:	00052503          	lw	a0,0(a0)
     f40:	00112623          	sw	ra,12(sp)
     f44:	e89ff0ef          	jal	dcc <matrix_test>
     f48:	00040593          	mv	a1,s0
     f4c:	00812403          	lw	s0,8(sp)
     f50:	00c12083          	lw	ra,12(sp)
     f54:	01010113          	addi	sp,sp,16
     f58:	5e80006f          	j	1540 <crc16>

00000f5c <core_init_state>:
     f5c:	00158713          	addi	a4,a1,1
     f60:	ff010113          	addi	sp,sp,-16
     f64:	01071713          	slli	a4,a4,0x10
     f68:	00812623          	sw	s0,12(sp)
     f6c:	00912423          	sw	s1,8(sp)
     f70:	fff50f13          	addi	t5,a0,-1
     f74:	01075713          	srli	a4,a4,0x10
     f78:	00000693          	li	a3,0
     f7c:	00000793          	li	a5,0
     f80:	00000313          	li	t1,0
     f84:	02c00f93          	li	t6,44
     f88:	00700293          	li	t0,7
     f8c:	0001de17          	auipc	t3,0x1d
     f90:	0fce0e13          	addi	t3,t3,252 # 1e088 <intpat>
     f94:	00400393          	li	t2,4
     f98:	00100413          	li	s0,1

00000f9c <.L2>:
     f9c:	00f30833          	add	a6,t1,a5
     fa0:	00180e93          	addi	t4,a6,1
     fa4:	01eeec63          	bltu	t4,t5,fbc <.L9>

00000fa8 <.L10>:
     fa8:	0aa36463          	bltu	t1,a0,1050 <.L11>
     fac:	00c12403          	lw	s0,12(sp)
     fb0:	00812483          	lw	s1,8(sp)
     fb4:	01010113          	addi	sp,sp,16
     fb8:	00008067          	ret

00000fbc <.L9>:
     fbc:	02078863          	beqz	a5,fec <.L3>
     fc0:	00000593          	li	a1,0

00000fc4 <.L4>:
     fc4:	00b688b3          	add	a7,a3,a1
     fc8:	0008c483          	lbu	s1,0(a7)
     fcc:	00b308b3          	add	a7,t1,a1
     fd0:	011608b3          	add	a7,a2,a7
     fd4:	00988023          	sb	s1,0(a7)
     fd8:	00158593          	addi	a1,a1,1
     fdc:	feb794e3          	bne	a5,a1,fc4 <.L4>
     fe0:	01060833          	add	a6,a2,a6
     fe4:	01f80023          	sb	t6,0(a6)
     fe8:	000e8313          	mv	t1,t4

00000fec <.L3>:
     fec:	00175793          	srli	a5,a4,0x1
     ff0:	00777693          	andi	a3,a4,7
     ff4:	00c7f793          	andi	a5,a5,12
     ff8:	04568663          	beq	a3,t0,1044 <.L5>
     ffc:	02d3ee63          	bltu	t2,a3,1038 <.L6>
    1000:	ffd68693          	addi	a3,a3,-3
    1004:	01069693          	slli	a3,a3,0x10
    1008:	0106d693          	srli	a3,a3,0x10
    100c:	00fe07b3          	add	a5,t3,a5
    1010:	00d47e63          	bgeu	s0,a3,102c <.L7>
    1014:	0007a683          	lw	a3,0(a5)
    1018:	00400793          	li	a5,4

0000101c <.L8>:
    101c:	00170713          	addi	a4,a4,1
    1020:	01071713          	slli	a4,a4,0x10
    1024:	01075713          	srli	a4,a4,0x10
    1028:	f75ff06f          	j	f9c <.L2>

0000102c <.L7>:
    102c:	0107a683          	lw	a3,16(a5)

00001030 <.L17>:
    1030:	00800793          	li	a5,8
    1034:	fe9ff06f          	j	101c <.L8>

00001038 <.L6>:
    1038:	00fe07b3          	add	a5,t3,a5
    103c:	0207a683          	lw	a3,32(a5)
    1040:	ff1ff06f          	j	1030 <.L17>

00001044 <.L5>:
    1044:	00fe07b3          	add	a5,t3,a5
    1048:	0307a683          	lw	a3,48(a5)
    104c:	fe5ff06f          	j	1030 <.L17>

00001050 <.L11>:
    1050:	006607b3          	add	a5,a2,t1
    1054:	00078023          	sb	zero,0(a5)
    1058:	00130313          	addi	t1,t1,1
    105c:	f4dff06f          	j	fa8 <.L10>

00001060 <core_state_transition>:
    1060:	00052703          	lw	a4,0(a0)
    1064:	00050693          	mv	a3,a0
    1068:	00100313          	li	t1,1
    106c:	00000513          	li	a0,0
    1070:	02c00e13          	li	t3,44
    1074:	00700e93          	li	t4,7
    1078:	82418893          	addi	a7,gp,-2012 # 14544 <.L24>
    107c:	00900613          	li	a2,9
    1080:	04500f13          	li	t5,69
    1084:	02e00813          	li	a6,46

00001088 <.L19>:
    1088:	00074783          	lbu	a5,0(a4)
    108c:	00078463          	beqz	a5,1094 <.L21>
    1090:	00651663          	bne	a0,t1,109c <.L47>

00001094 <.L21>:
    1094:	00e6a023          	sw	a4,0(a3)
    1098:	00008067          	ret

0000109c <.L47>:
    109c:	00170713          	addi	a4,a4,1
    10a0:	ffc78ae3          	beq	a5,t3,1094 <.L21>
    10a4:	feaee2e3          	bltu	t4,a0,1088 <.L19>
    10a8:	00251f93          	slli	t6,a0,0x2
    10ac:	011f8fb3          	add	t6,t6,a7
    10b0:	000faf83          	lw	t6,0(t6)
    10b4:	011f8fb3          	add	t6,t6,a7
    10b8:	000f8067          	jr	t6

000010bc <.L30>:
    10bc:	00500513          	li	a0,5
    10c0:	01078c63          	beq	a5,a6,10d8 <.L31>
    10c4:	02f86263          	bltu	a6,a5,10e8 <.L32>
    10c8:	fd578793          	addi	a5,a5,-43
    10cc:	0fd7f793          	andi	a5,a5,253
    10d0:	00200513          	li	a0,2
    10d4:	02079463          	bnez	a5,10fc <.L33>

000010d8 <.L31>:
    10d8:	0005a783          	lw	a5,0(a1)
    10dc:	00178793          	addi	a5,a5,1
    10e0:	00f5a023          	sw	a5,0(a1)
    10e4:	fa5ff06f          	j	1088 <.L19>

000010e8 <.L32>:
    10e8:	fd078793          	addi	a5,a5,-48
    10ec:	0ff7f793          	zext.b	a5,a5
    10f0:	00900f93          	li	t6,9
    10f4:	00400513          	li	a0,4
    10f8:	fefff0e3          	bgeu	t6,a5,10d8 <.L31>

000010fc <.L33>:
    10fc:	0045a783          	lw	a5,4(a1)
    1100:	00100513          	li	a0,1
    1104:	00178793          	addi	a5,a5,1
    1108:	00f5a223          	sw	a5,4(a1)
    110c:	fcdff06f          	j	10d8 <.L31>

00001110 <.L29>:
    1110:	0085a503          	lw	a0,8(a1)
    1114:	fd078f93          	addi	t6,a5,-48
    1118:	0fffff93          	zext.b	t6,t6
    111c:	00150513          	addi	a0,a0,1
    1120:	01f67c63          	bgeu	a2,t6,1138 <.L34>
    1124:	02e00f93          	li	t6,46
    1128:	01f79e63          	bne	a5,t6,1144 <.L55>
    112c:	00a5a423          	sw	a0,8(a1)

00001130 <.L37>:
    1130:	00500513          	li	a0,5
    1134:	f55ff06f          	j	1088 <.L19>

00001138 <.L34>:
    1138:	00a5a423          	sw	a0,8(a1)

0000113c <.L40>:
    113c:	00400513          	li	a0,4
    1140:	f49ff06f          	j	1088 <.L19>

00001144 <.L55>:
    1144:	00a5a423          	sw	a0,8(a1)

00001148 <.L38>:
    1148:	00100513          	li	a0,1
    114c:	f3dff06f          	j	1088 <.L19>

00001150 <.L27>:
    1150:	01079a63          	bne	a5,a6,1164 <.L39>
    1154:	0105a783          	lw	a5,16(a1)
    1158:	00178793          	addi	a5,a5,1
    115c:	00f5a823          	sw	a5,16(a1)
    1160:	fd1ff06f          	j	1130 <.L37>

00001164 <.L39>:
    1164:	fd078793          	addi	a5,a5,-48
    1168:	0ff7f793          	zext.b	a5,a5
    116c:	00900513          	li	a0,9
    1170:	fcf576e3          	bgeu	a0,a5,113c <.L40>
    1174:	0105a783          	lw	a5,16(a1)
    1178:	00178793          	addi	a5,a5,1
    117c:	00f5a823          	sw	a5,16(a1)
    1180:	fc9ff06f          	j	1148 <.L38>

00001184 <.L26>:
    1184:	0df7f513          	andi	a0,a5,223
    1188:	01e51c63          	bne	a0,t5,11a0 <.L41>
    118c:	0145a783          	lw	a5,20(a1)
    1190:	00300513          	li	a0,3
    1194:	00178793          	addi	a5,a5,1
    1198:	00f5aa23          	sw	a5,20(a1)
    119c:	eedff06f          	j	1088 <.L19>

000011a0 <.L41>:
    11a0:	fd078793          	addi	a5,a5,-48
    11a4:	0ff7f793          	zext.b	a5,a5
    11a8:	00900513          	li	a0,9
    11ac:	f8f572e3          	bgeu	a0,a5,1130 <.L37>
    11b0:	0145a783          	lw	a5,20(a1)
    11b4:	00178793          	addi	a5,a5,1
    11b8:	00f5aa23          	sw	a5,20(a1)
    11bc:	f8dff06f          	j	1148 <.L38>

000011c0 <.L28>:
    11c0:	00c5a503          	lw	a0,12(a1)
    11c4:	fd578793          	addi	a5,a5,-43
    11c8:	0fd7f793          	andi	a5,a5,253
    11cc:	00150513          	addi	a0,a0,1
    11d0:	00a5a623          	sw	a0,12(a1)
    11d4:	00600513          	li	a0,6
    11d8:	f60798e3          	bnez	a5,1148 <.L38>
    11dc:	eadff06f          	j	1088 <.L19>

000011e0 <.L25>:
    11e0:	0185a503          	lw	a0,24(a1)
    11e4:	fd078793          	addi	a5,a5,-48
    11e8:	0ff7f793          	zext.b	a5,a5
    11ec:	00150513          	addi	a0,a0,1
    11f0:	00a5ac23          	sw	a0,24(a1)
    11f4:	f4f66ae3          	bltu	a2,a5,1148 <.L38>

000011f8 <.L45>:
    11f8:	00700513          	li	a0,7
    11fc:	e8dff06f          	j	1088 <.L19>

00001200 <.L23>:
    1200:	fd078793          	addi	a5,a5,-48
    1204:	0ff7f793          	zext.b	a5,a5
    1208:	fef678e3          	bgeu	a2,a5,11f8 <.L45>
    120c:	0045a783          	lw	a5,4(a1)
    1210:	00178793          	addi	a5,a5,1
    1214:	00f5a223          	sw	a5,4(a1)
    1218:	f31ff06f          	j	1148 <.L38>

0000121c <core_bench_state>:
    121c:	f8010113          	addi	sp,sp,-128
    1220:	07312623          	sw	s3,108(sp)
    1224:	03010993          	addi	s3,sp,48
    1228:	06812c23          	sw	s0,120(sp)
    122c:	07212823          	sw	s2,112(sp)
    1230:	05712e23          	sw	s7,92(sp)
    1234:	00b12623          	sw	a1,12(sp)
    1238:	00050913          	mv	s2,a0
    123c:	00058413          	mv	s0,a1
    1240:	00060b93          	mv	s7,a2
    1244:	00000593          	li	a1,0
    1248:	02000613          	li	a2,32
    124c:	00098513          	mv	a0,s3
    1250:	06112e23          	sw	ra,124(sp)
    1254:	06912a23          	sw	s1,116(sp)
    1258:	07412423          	sw	s4,104(sp)
    125c:	07512223          	sw	s5,100(sp)
    1260:	07612023          	sw	s6,96(sp)
    1264:	05812c23          	sw	s8,88(sp)
    1268:	00068a93          	mv	s5,a3
    126c:	00070a13          	mv	s4,a4
    1270:	00078493          	mv	s1,a5
    1274:	01010b13          	addi	s6,sp,16
    1278:	09d020ef          	jal	3b14 <__GI_memset>
    127c:	02000613          	li	a2,32
    1280:	00000593          	li	a1,0
    1284:	000b0513          	mv	a0,s6
    1288:	08d020ef          	jal	3b14 <__GI_memset>
    128c:	00c10c13          	addi	s8,sp,12

00001290 <.L57>:
    1290:	00c12783          	lw	a5,12(sp)
    1294:	0007c783          	lbu	a5,0(a5)
    1298:	08079a63          	bnez	a5,132c <.L58>
    129c:	00812623          	sw	s0,12(sp)
    12a0:	00040793          	mv	a5,s0
    12a4:	01240933          	add	s2,s0,s2
    12a8:	02c00693          	li	a3,44

000012ac <.L59>:
    12ac:	0b27e463          	bltu	a5,s2,1354 <.L61>
    12b0:	00c10b93          	addi	s7,sp,12

000012b4 <.L62>:
    12b4:	00c12783          	lw	a5,12(sp)
    12b8:	0007c783          	lbu	a5,0(a5)
    12bc:	0a079863          	bnez	a5,136c <.L63>
    12c0:	02c00713          	li	a4,44

000012c4 <.L64>:
    12c4:	0d246863          	bltu	s0,s2,1394 <.L66>
    12c8:	00000413          	li	s0,0
    12cc:	02000913          	li	s2,32

000012d0 <.L67>:
    12d0:	008b07b3          	add	a5,s6,s0
    12d4:	0007a503          	lw	a0,0(a5)
    12d8:	00048593          	mv	a1,s1
    12dc:	230000ef          	jal	150c <crcu32>
    12e0:	008987b3          	add	a5,s3,s0
    12e4:	00050593          	mv	a1,a0
    12e8:	0007a503          	lw	a0,0(a5)
    12ec:	00440413          	addi	s0,s0,4
    12f0:	21c000ef          	jal	150c <crcu32>
    12f4:	00050493          	mv	s1,a0
    12f8:	fd241ce3          	bne	s0,s2,12d0 <.L67>
    12fc:	07c12083          	lw	ra,124(sp)
    1300:	07812403          	lw	s0,120(sp)
    1304:	07412483          	lw	s1,116(sp)
    1308:	07012903          	lw	s2,112(sp)
    130c:	06c12983          	lw	s3,108(sp)
    1310:	06812a03          	lw	s4,104(sp)
    1314:	06412a83          	lw	s5,100(sp)
    1318:	06012b03          	lw	s6,96(sp)
    131c:	05c12b83          	lw	s7,92(sp)
    1320:	05812c03          	lw	s8,88(sp)
    1324:	08010113          	addi	sp,sp,128
    1328:	00008067          	ret

0000132c <.L58>:
    132c:	00098593          	mv	a1,s3
    1330:	000c0513          	mv	a0,s8
    1334:	d2dff0ef          	jal	1060 <core_state_transition>
    1338:	00251513          	slli	a0,a0,0x2
    133c:	05050793          	addi	a5,a0,80
    1340:	00278533          	add	a0,a5,sp
    1344:	fc052783          	lw	a5,-64(a0)
    1348:	00178793          	addi	a5,a5,1
    134c:	fcf52023          	sw	a5,-64(a0)
    1350:	f41ff06f          	j	1290 <.L57>

00001354 <.L61>:
    1354:	0007c703          	lbu	a4,0(a5)
    1358:	00d70663          	beq	a4,a3,1364 <.L60>
    135c:	01774733          	xor	a4,a4,s7
    1360:	00e78023          	sb	a4,0(a5)

00001364 <.L60>:
    1364:	014787b3          	add	a5,a5,s4
    1368:	f45ff06f          	j	12ac <.L59>

0000136c <.L63>:
    136c:	00098593          	mv	a1,s3
    1370:	000b8513          	mv	a0,s7
    1374:	cedff0ef          	jal	1060 <core_state_transition>
    1378:	00251513          	slli	a0,a0,0x2
    137c:	05050793          	addi	a5,a0,80
    1380:	00278533          	add	a0,a5,sp
    1384:	fc052783          	lw	a5,-64(a0)
    1388:	00178793          	addi	a5,a5,1
    138c:	fcf52023          	sw	a5,-64(a0)
    1390:	f25ff06f          	j	12b4 <.L62>

00001394 <.L66>:
    1394:	00044783          	lbu	a5,0(s0)
    1398:	00e78663          	beq	a5,a4,13a4 <.L65>
    139c:	0157c7b3          	xor	a5,a5,s5
    13a0:	00f40023          	sb	a5,0(s0)

000013a4 <.L65>:
    13a4:	01440433          	add	s0,s0,s4
    13a8:	f1dff06f          	j	12c4 <.L64>

000013ac <parseval>:
    13ac:	00054703          	lbu	a4,0(a0)
    13b0:	02d00793          	li	a5,45
    13b4:	00100613          	li	a2,1
    13b8:	00f71663          	bne	a4,a5,13c4 <.L2>
    13bc:	00150513          	addi	a0,a0,1
    13c0:	fff00613          	li	a2,-1

000013c4 <.L2>:
    13c4:	00054683          	lbu	a3,0(a0)
    13c8:	03000713          	li	a4,48
    13cc:	00000793          	li	a5,0
    13d0:	00e69863          	bne	a3,a4,13e0 <.L3>
    13d4:	00154683          	lbu	a3,1(a0)
    13d8:	07800713          	li	a4,120
    13dc:	02e68663          	beq	a3,a4,1408 <.L4>

000013e0 <.L3>:
    13e0:	00900693          	li	a3,9
    13e4:	00a00813          	li	a6,10

000013e8 <.L5>:
    13e8:	00054703          	lbu	a4,0(a0)
    13ec:	fd070713          	addi	a4,a4,-48
    13f0:	0ff77593          	zext.b	a1,a4
    13f4:	02b6ee63          	bltu	a3,a1,1430 <.L10>
    13f8:	030787b3          	mul	a5,a5,a6
    13fc:	00150513          	addi	a0,a0,1
    1400:	00f707b3          	add	a5,a4,a5
    1404:	fe5ff06f          	j	13e8 <.L5>

00001408 <.L4>:
    1408:	00250513          	addi	a0,a0,2
    140c:	00900813          	li	a6,9
    1410:	00500593          	li	a1,5

00001414 <.L6>:
    1414:	00054683          	lbu	a3,0(a0)
    1418:	fd068713          	addi	a4,a3,-48
    141c:	0ff77893          	zext.b	a7,a4
    1420:	03187663          	bgeu	a6,a7,144c <.L7>
    1424:	f9f68713          	addi	a4,a3,-97
    1428:	0ff77713          	zext.b	a4,a4
    142c:	00e5fe63          	bgeu	a1,a4,1448 <.L9>

00001430 <.L10>:
    1430:	00054703          	lbu	a4,0(a0)
    1434:	04b00693          	li	a3,75
    1438:	02d71263          	bne	a4,a3,145c <.L12>
    143c:	00a79793          	slli	a5,a5,0xa

00001440 <.L13>:
    1440:	02c78533          	mul	a0,a5,a2
    1444:	00008067          	ret

00001448 <.L9>:
    1448:	fa968713          	addi	a4,a3,-87

0000144c <.L7>:
    144c:	00479793          	slli	a5,a5,0x4
    1450:	00f707b3          	add	a5,a4,a5
    1454:	00150513          	addi	a0,a0,1
    1458:	fbdff06f          	j	1414 <.L6>

0000145c <.L12>:
    145c:	04d00693          	li	a3,77
    1460:	fed710e3          	bne	a4,a3,1440 <.L13>
    1464:	01479793          	slli	a5,a5,0x14
    1468:	fd9ff06f          	j	1440 <.L13>

0000146c <get_seed_args>:
    146c:	00b55a63          	bge	a0,a1,1480 <.L17>
    1470:	00251513          	slli	a0,a0,0x2
    1474:	00a60633          	add	a2,a2,a0
    1478:	00062503          	lw	a0,0(a2)
    147c:	f31ff06f          	j	13ac <parseval>

00001480 <.L17>:
    1480:	00000513          	li	a0,0
    1484:	00008067          	ret

00001488 <crcu8>:
    1488:	00004637          	lui	a2,0x4
    148c:	00050693          	mv	a3,a0
    1490:	00800713          	li	a4,8
    1494:	00058513          	mv	a0,a1
    1498:	00260613          	addi	a2,a2,2 # 4002 <.L8+0x2>
    149c:	ffff8837          	lui	a6,0xffff8

000014a0 <.L20>:
    14a0:	00a6c7b3          	xor	a5,a3,a0
    14a4:	0017f793          	andi	a5,a5,1
    14a8:	0016d693          	srli	a3,a3,0x1
    14ac:	00078463          	beqz	a5,14b4 <.L19>
    14b0:	00c54533          	xor	a0,a0,a2

000014b4 <.L19>:
    14b4:	40f007b3          	neg	a5,a5
    14b8:	00155593          	srli	a1,a0,0x1
    14bc:	0107f7b3          	and	a5,a5,a6
    14c0:	00b7e7b3          	or	a5,a5,a1
    14c4:	fff70713          	addi	a4,a4,-1
    14c8:	01079513          	slli	a0,a5,0x10
    14cc:	0ff77713          	zext.b	a4,a4
    14d0:	01055513          	srli	a0,a0,0x10
    14d4:	fc0716e3          	bnez	a4,14a0 <.L20>
    14d8:	00008067          	ret

000014dc <crcu16>:
    14dc:	ff010113          	addi	sp,sp,-16
    14e0:	00812423          	sw	s0,8(sp)
    14e4:	00050413          	mv	s0,a0
    14e8:	0ff57513          	zext.b	a0,a0
    14ec:	00112623          	sw	ra,12(sp)
    14f0:	f99ff0ef          	jal	1488 <crcu8>
    14f4:	00050593          	mv	a1,a0
    14f8:	00845513          	srli	a0,s0,0x8
    14fc:	00812403          	lw	s0,8(sp)
    1500:	00c12083          	lw	ra,12(sp)
    1504:	01010113          	addi	sp,sp,16
    1508:	f81ff06f          	j	1488 <crcu8>

0000150c <crcu32>:
    150c:	ff010113          	addi	sp,sp,-16
    1510:	00812423          	sw	s0,8(sp)
    1514:	00050413          	mv	s0,a0
    1518:	01051513          	slli	a0,a0,0x10
    151c:	01055513          	srli	a0,a0,0x10
    1520:	00112623          	sw	ra,12(sp)
    1524:	fb9ff0ef          	jal	14dc <crcu16>
    1528:	00050593          	mv	a1,a0
    152c:	01045513          	srli	a0,s0,0x10
    1530:	00812403          	lw	s0,8(sp)
    1534:	00c12083          	lw	ra,12(sp)
    1538:	01010113          	addi	sp,sp,16
    153c:	fa1ff06f          	j	14dc <crcu16>

00001540 <crc16>:
    1540:	01051513          	slli	a0,a0,0x10
    1544:	01055513          	srli	a0,a0,0x10
    1548:	f95ff06f          	j	14dc <crcu16>

0000154c <check_data_types>:
    154c:	00000513          	li	a0,0
    1550:	00008067          	ret

00001554 <__divdf3>:
#include "soft-fp.h"
#include "double.h"

DFtype
__divdf3 (DFtype a, DFtype b)
{
    1554:	fd010113          	addi	sp,sp,-48
    1558:	01312e23          	sw	s3,28(sp)

0000155c <.LBB3>:
  FP_DECL_D (B);
  FP_DECL_D (R);
  DFtype r;

  FP_INIT_ROUNDMODE;
  FP_UNPACK_D (A, a);
    155c:	0145d993          	srli	s3,a1,0x14

00001560 <.LBE3>:
{
    1560:	02812423          	sw	s0,40(sp)
    1564:	02912223          	sw	s1,36(sp)
    1568:	03212023          	sw	s2,32(sp)
    156c:	01412c23          	sw	s4,24(sp)
    1570:	01712623          	sw	s7,12(sp)

00001574 <.LBB4>:
  FP_UNPACK_D (A, a);
    1574:	00c59493          	slli	s1,a1,0xc

00001578 <.LBE4>:
{
    1578:	02112623          	sw	ra,44(sp)
    157c:	01512a23          	sw	s5,20(sp)
    1580:	01612823          	sw	s6,16(sp)
    1584:	01812423          	sw	s8,8(sp)

00001588 <.LBB5>:
  FP_UNPACK_D (A, a);
    1588:	7ff9f993          	andi	s3,s3,2047

0000158c <.LBE5>:
{
    158c:	00050413          	mv	s0,a0
    1590:	00060b93          	mv	s7,a2
    1594:	00068913          	mv	s2,a3

00001598 <.LBB6>:
  FP_UNPACK_D (A, a);
    1598:	00c4d493          	srli	s1,s1,0xc

0000159c <.LVL2>:
    159c:	01f5da13          	srli	s4,a1,0x1f

000015a0 <.LBE6>:
    15a0:	18098a63          	beqz	s3,1734 <.L2>
    15a4:	7ff00793          	li	a5,2047
    15a8:	08f98863          	beq	s3,a5,1638 <.L3>

000015ac <.LVL4>:
    15ac:	00349493          	slli	s1,s1,0x3

000015b0 <.LVL5>:
    15b0:	01d55793          	srli	a5,a0,0x1d
    15b4:	0097e7b3          	or	a5,a5,s1
    15b8:	00800737          	lui	a4,0x800
    15bc:	00e7eab3          	or	s5,a5,a4

000015c0 <.LVL6>:
    15c0:	00351b13          	slli	s6,a0,0x3

000015c4 <.LVL7>:
    15c4:	c0198993          	addi	s3,s3,-1023

000015c8 <.LVL8>:
    15c8:	00000493          	li	s1,0
    15cc:	00000c13          	li	s8,0

000015d0 <.L4>:
  FP_UNPACK_D (B, b);
    15d0:	01495793          	srli	a5,s2,0x14
    15d4:	00c91413          	slli	s0,s2,0xc
    15d8:	7ff7f793          	andi	a5,a5,2047
    15dc:	00c45413          	srli	s0,s0,0xc

000015e0 <.LVL10>:
    15e0:	01f95913          	srli	s2,s2,0x1f

000015e4 <.LBE8>:
    15e4:	08078263          	beqz	a5,1668 <.L9>

000015e8 <.L123>:
    15e8:	7ff00713          	li	a4,2047
    15ec:	18e78a63          	beq	a5,a4,1780 <.L10>

000015f0 <.LVL13>:
    15f0:	00341413          	slli	s0,s0,0x3

000015f4 <.LVL14>:
    15f4:	01dbd713          	srli	a4,s7,0x1d
    15f8:	00876733          	or	a4,a4,s0
    15fc:	c0178793          	addi	a5,a5,-1023
    1600:	00800437          	lui	s0,0x800
    1604:	00876433          	or	s0,a4,s0

00001608 <.LVL15>:
    1608:	003b9893          	slli	a7,s7,0x3

0000160c <.LVL16>:
  FP_DIV_D (R, A, B);
    160c:	40f989b3          	sub	s3,s3,a5

00001610 <.LVL17>:
  FP_UNPACK_D (B, b);
    1610:	00000613          	li	a2,0

00001614 <.L11>:
  FP_DIV_D (R, A, B);
    1614:	00f00713          	li	a4,15
    1618:	012a46b3          	xor	a3,s4,s2

0000161c <.LVL19>:
    161c:	24976463          	bltu	a4,s1,1864 <.L18>
    1620:	84418713          	addi	a4,gp,-1980 # 14564 <.L20>
    1624:	00249493          	slli	s1,s1,0x2
    1628:	00e484b3          	add	s1,s1,a4
    162c:	0004a783          	lw	a5,0(s1)
    1630:	00e787b3          	add	a5,a5,a4
    1634:	00078067          	jr	a5

00001638 <.L3>:
  FP_UNPACK_D (A, a);
    1638:	00a4eab3          	or	s5,s1,a0
    163c:	1c0a9e63          	bnez	s5,1818 <.L83>

00001640 <.LBB11>:
  FP_UNPACK_D (B, b);
    1640:	01495793          	srli	a5,s2,0x14
    1644:	00c91413          	slli	s0,s2,0xc

00001648 <.LVL21>:
    1648:	7ff7f793          	andi	a5,a5,2047

0000164c <.LBB12>:
  FP_UNPACK_D (A, a);
    164c:	00000b13          	li	s6,0

00001650 <.LBE12>:
    1650:	00800493          	li	s1,8

00001654 <.LBB13>:
    1654:	7ff00993          	li	s3,2047

00001658 <.LBE13>:
    1658:	00200c13          	li	s8,2

0000165c <.LBB14>:
  FP_UNPACK_D (B, b);
    165c:	00c45413          	srli	s0,s0,0xc

00001660 <.LVL25>:
    1660:	01f95913          	srli	s2,s2,0x1f

00001664 <.LBE14>:
    1664:	f80792e3          	bnez	a5,15e8 <.L123>

00001668 <.L9>:
    1668:	017468b3          	or	a7,s0,s7
    166c:	1c088263          	beqz	a7,1830 <.L124>

00001670 <.LBB15>:
    1670:	4a040a63          	beqz	s0,1b24 <.L13>
    1674:	00040513          	mv	a0,s0
    1678:	261000ef          	jal	20d8 <__clzsi2>

0000167c <.LVL28>:
    167c:	00050793          	mv	a5,a0

00001680 <.LVL29>:
    1680:	ff550693          	addi	a3,a0,-11

00001684 <.L14>:
    1684:	01d00713          	li	a4,29
    1688:	ff878893          	addi	a7,a5,-8
    168c:	40d70733          	sub	a4,a4,a3
    1690:	01141433          	sll	s0,s0,a7

00001694 <.LVL31>:
    1694:	00ebd733          	srl	a4,s7,a4
    1698:	00876433          	or	s0,a4,s0

0000169c <.LVL32>:
    169c:	011b98b3          	sll	a7,s7,a7

000016a0 <.L16>:
    16a0:	013787b3          	add	a5,a5,s3

000016a4 <.LBE15>:
  FP_DIV_D (R, A, B);
    16a4:	3f378993          	addi	s3,a5,1011

000016a8 <.LBB18>:
  FP_UNPACK_D (B, b);
    16a8:	00000613          	li	a2,0
    16ac:	f69ff06f          	j	1614 <.L11>

000016b0 <.L133>:
  FP_PACK_D (r, R);
    16b0:	40f70733          	sub	a4,a4,a5

000016b4 <.LVL37>:
    16b4:	03800613          	li	a2,56
    16b8:	4ee65a63          	bge	a2,a4,1bac <.L125>

000016bc <.L103>:
    16bc:	00000793          	li	a5,0
    16c0:	00000613          	li	a2,0
    16c4:	00000713          	li	a4,0

000016c8 <.L23>:
  FP_HANDLE_EXCEPTIONS;

  return r;
}
    16c8:	02c12083          	lw	ra,44(sp)
    16cc:	02812403          	lw	s0,40(sp)

000016d0 <.LBB29>:
  FP_PACK_D (r, R);
    16d0:	01479793          	slli	a5,a5,0x14
    16d4:	00c7e7b3          	or	a5,a5,a2
    16d8:	01f69693          	slli	a3,a3,0x1f
    16dc:	00d7e7b3          	or	a5,a5,a3

000016e0 <.LBE29>:
}
    16e0:	02412483          	lw	s1,36(sp)
    16e4:	02012903          	lw	s2,32(sp)
    16e8:	01c12983          	lw	s3,28(sp)
    16ec:	01812a03          	lw	s4,24(sp)

000016f0 <.LVL41>:
    16f0:	01412a83          	lw	s5,20(sp)

000016f4 <.LVL42>:
    16f4:	01012b03          	lw	s6,16(sp)
    16f8:	00c12b83          	lw	s7,12(sp)
    16fc:	00812c03          	lw	s8,8(sp)
    1700:	00070513          	mv	a0,a4
    1704:	00078593          	mv	a1,a5
    1708:	03010113          	addi	sp,sp,48
    170c:	00008067          	ret

00001710 <.L101>:
    1710:	7ff00793          	li	a5,2047
    1714:	00000613          	li	a2,0
  FP_PACK_D (r, R);
    1718:	00000713          	li	a4,0
    171c:	fadff06f          	j	16c8 <.L23>

00001720 <.L100>:
    1720:	00000693          	li	a3,0
    1724:	7ff00793          	li	a5,2047
    1728:	00080637          	lui	a2,0x80

0000172c <.LVL45>:
    172c:	00000713          	li	a4,0
    1730:	f99ff06f          	j	16c8 <.L23>

00001734 <.L2>:
  FP_UNPACK_D (A, a);
    1734:	00a4eab3          	or	s5,s1,a0
    1738:	100a8c63          	beqz	s5,1850 <.L82>

0000173c <.LBB30>:
    173c:	40048863          	beqz	s1,1b4c <.L5>
    1740:	00048513          	mv	a0,s1

00001744 <.LVL47>:
    1744:	195000ef          	jal	20d8 <__clzsi2>

00001748 <.LVL48>:
    1748:	00050713          	mv	a4,a0

0000174c <.LVL49>:
    174c:	ff550693          	addi	a3,a0,-11

00001750 <.L6>:
    1750:	01d00793          	li	a5,29
    1754:	ff870b13          	addi	s6,a4,-8 # 7ffff8 <_ebss+0x7d5528>
    1758:	40d787b3          	sub	a5,a5,a3
    175c:	016494b3          	sll	s1,s1,s6

00001760 <.LVL51>:
    1760:	00f457b3          	srl	a5,s0,a5
    1764:	0097eab3          	or	s5,a5,s1

00001768 <.LVL52>:
    1768:	01641b33          	sll	s6,s0,s6

0000176c <.L8>:
    176c:	c0d00993          	li	s3,-1011

00001770 <.LVL54>:
    1770:	40e989b3          	sub	s3,s3,a4

00001774 <.LVL55>:
    1774:	00000493          	li	s1,0
    1778:	00000c13          	li	s8,0
    177c:	e55ff06f          	j	15d0 <.L4>

00001780 <.L10>:
  FP_UNPACK_D (B, b);
    1780:	017468b3          	or	a7,s0,s7
    1784:	80198993          	addi	s3,s3,-2047

00001788 <.LVL57>:
    1788:	0a089c63          	bnez	a7,1840 <.L17>
  FP_DIV_D (R, A, B);
    178c:	0024e493          	ori	s1,s1,2

00001790 <.LBB33>:
  FP_UNPACK_D (B, b);
    1790:	00000413          	li	s0,0

00001794 <.LBE33>:
    1794:	00200613          	li	a2,2
    1798:	e7dff06f          	j	1614 <.L11>

0000179c <.L21>:
  FP_UNPACK_D (A, a);
    179c:	000a0913          	mv	s2,s4

000017a0 <.LBE34>:
  FP_DIV_D (R, A, B);
    17a0:	000a8413          	mv	s0,s5

000017a4 <.LVL60>:
    17a4:	000b0893          	mv	a7,s6

000017a8 <.L25>:
  FP_PACK_D (r, R);
    17a8:	00200793          	li	a5,2
    17ac:	4efc0863          	beq	s8,a5,1c9c <.L62>
    17b0:	00300793          	li	a5,3
    17b4:	f6fc06e3          	beq	s8,a5,1720 <.L100>
    17b8:	00100793          	li	a5,1

000017bc <.LBB35>:
    17bc:	00090693          	mv	a3,s2

000017c0 <.LBE35>:
    17c0:	eefc0ee3          	beq	s8,a5,16bc <.L103>

000017c4 <.L56>:
    17c4:	3ff98793          	addi	a5,s3,1023

000017c8 <.LVL63>:
    17c8:	2af05663          	blez	a5,1a74 <.L64>
    17cc:	0078f713          	andi	a4,a7,7
    17d0:	4a071663          	bnez	a4,1c7c <.L126>

000017d4 <.L65>:
    17d4:	00741713          	slli	a4,s0,0x7
    17d8:	00075a63          	bgez	a4,17ec <.L68>
    17dc:	ff0007b7          	lui	a5,0xff000

000017e0 <.LVL65>:
    17e0:	fff78793          	addi	a5,a5,-1 # feffffff <_ebss+0xfefd552f>
    17e4:	00f47433          	and	s0,s0,a5
    17e8:	40098793          	addi	a5,s3,1024

000017ec <.L68>:
    17ec:	7fe00713          	li	a4,2046
    17f0:	f2f740e3          	blt	a4,a5,1710 <.L101>
    17f4:	0038d893          	srli	a7,a7,0x3

000017f8 <.LVL68>:
    17f8:	01d41713          	slli	a4,s0,0x1d

000017fc <.LBB38>:
    17fc:	00941613          	slli	a2,s0,0x9

00001800 <.LBE38>:
    1800:	01176733          	or	a4,a4,a7

00001804 <.LBB40>:
    1804:	00c65613          	srli	a2,a2,0xc
    1808:	7ff7f793          	andi	a5,a5,2047

0000180c <.LVL71>:
    180c:	ebdff06f          	j	16c8 <.L23>

00001810 <.L22>:
  FP_DIV_D (R, A, B);
    1810:	00060c13          	mv	s8,a2

00001814 <.LVL73>:
    1814:	f95ff06f          	j	17a8 <.L25>

00001818 <.L83>:
  FP_UNPACK_D (A, a);
    1818:	00048a93          	mv	s5,s1
    181c:	00050b13          	mv	s6,a0

00001820 <.LBE41>:
    1820:	00c00493          	li	s1,12

00001824 <.LBB42>:
    1824:	7ff00993          	li	s3,2047

00001828 <.LBE42>:
    1828:	00300c13          	li	s8,3
    182c:	da5ff06f          	j	15d0 <.L4>

00001830 <.L124>:
  FP_DIV_D (R, A, B);
    1830:	0014e493          	ori	s1,s1,1

00001834 <.LBB43>:
  FP_UNPACK_D (B, b);
    1834:	00000413          	li	s0,0

00001838 <.LBE43>:
    1838:	00100613          	li	a2,1
    183c:	dd9ff06f          	j	1614 <.L11>

00001840 <.L17>:
  FP_DIV_D (R, A, B);
    1840:	0034e493          	ori	s1,s1,3

00001844 <.LBB44>:
  FP_UNPACK_D (B, b);
    1844:	000b8893          	mv	a7,s7

00001848 <.LBE44>:
    1848:	00300613          	li	a2,3
    184c:	dc9ff06f          	j	1614 <.L11>

00001850 <.L82>:
  FP_UNPACK_D (A, a);
    1850:	00000b13          	li	s6,0

00001854 <.LBE45>:
    1854:	00400493          	li	s1,4

00001858 <.LBB46>:
    1858:	00000993          	li	s3,0

0000185c <.LBE46>:
    185c:	00100c13          	li	s8,1
    1860:	d71ff06f          	j	15d0 <.L4>

00001864 <.L18>:
  FP_DIV_D (R, A, B);
    1864:	2b546463          	bltu	s0,s5,1b0c <.L26>
    1868:	2a8a8063          	beq	s5,s0,1b08 <.L127>

0000186c <.L27>:
    186c:	000b0313          	mv	t1,s6
    1870:	fff98993          	addi	s3,s3,-1

00001874 <.LVL84>:
    1874:	000a8793          	mv	a5,s5
    1878:	00000b13          	li	s6,0

0000187c <.L28>:
    187c:	00841713          	slli	a4,s0,0x8

00001880 <.LBB49>:
    1880:	01075513          	srli	a0,a4,0x10
    1884:	02a7d433          	divu	s0,a5,a0

00001888 <.LBE49>:
    1888:	0188d613          	srli	a2,a7,0x18

0000188c <.LVL87>:
    188c:	00e66633          	or	a2,a2,a4

00001890 <.LBB51>:
    1890:	01061813          	slli	a6,a2,0x10
    1894:	01085813          	srli	a6,a6,0x10

00001898 <.LBE51>:
    1898:	00889593          	slli	a1,a7,0x8

0000189c <.LBB53>:
    189c:	01035713          	srli	a4,t1,0x10
    18a0:	02a7f7b3          	remu	a5,a5,a0

000018a4 <.LVL90>:
    18a4:	028808b3          	mul	a7,a6,s0

000018a8 <.LVL91>:
    18a8:	01079793          	slli	a5,a5,0x10

000018ac <.LVL92>:
    18ac:	00f767b3          	or	a5,a4,a5

000018b0 <.LVL93>:
    18b0:	0117fa63          	bgeu	a5,a7,18c4 <.L29>
    18b4:	00f607b3          	add	a5,a2,a5

000018b8 <.LVL94>:
    18b8:	fff40713          	addi	a4,s0,-1 # 7fffff <_ebss+0x7d552f>

000018bc <.LVL95>:
    18bc:	2ec7f063          	bgeu	a5,a2,1b9c <.L128>

000018c0 <.L86>:
    18c0:	00070413          	mv	s0,a4

000018c4 <.L29>:
    18c4:	411787b3          	sub	a5,a5,a7

000018c8 <.LVL97>:
    18c8:	02a7d8b3          	divu	a7,a5,a0

000018cc <.LVL98>:
    18cc:	01031713          	slli	a4,t1,0x10
    18d0:	01075713          	srli	a4,a4,0x10
    18d4:	02a7f7b3          	remu	a5,a5,a0

000018d8 <.LVL99>:
    18d8:	03180fb3          	mul	t6,a6,a7

000018dc <.LVL100>:
    18dc:	01079793          	slli	a5,a5,0x10

000018e0 <.LVL101>:
    18e0:	00f76733          	or	a4,a4,a5

000018e4 <.LVL102>:
    18e4:	01f77a63          	bgeu	a4,t6,18f8 <.L32>
    18e8:	00e60733          	add	a4,a2,a4

000018ec <.LVL103>:
    18ec:	fff88793          	addi	a5,a7,-1

000018f0 <.LVL104>:
    18f0:	28c77e63          	bgeu	a4,a2,1b8c <.L129>

000018f4 <.L88>:
    18f4:	00078893          	mv	a7,a5

000018f8 <.L32>:
    18f8:	01041413          	slli	s0,s0,0x10

000018fc <.LVL106>:
    18fc:	000102b7          	lui	t0,0x10
    1900:	01146433          	or	s0,s0,a7
    1904:	fff28313          	addi	t1,t0,-1 # ffff <.LBB97+0x3>

00001908 <.LVL107>:
    1908:	006478b3          	and	a7,s0,t1

0000190c <.LBB54>:
    190c:	01045e93          	srli	t4,s0,0x10
    1910:	0105de13          	srli	t3,a1,0x10
    1914:	0065f333          	and	t1,a1,t1
    1918:	03130f33          	mul	t5,t1,a7

0000191c <.LBB55>:
    191c:	41f70733          	sub	a4,a4,t6

00001920 <.LBB56>:
    1920:	031e08b3          	mul	a7,t3,a7

00001924 <.LVL110>:
    1924:	010f5793          	srli	a5,t5,0x10
    1928:	026e8fb3          	mul	t6,t4,t1

0000192c <.LVL111>:
    192c:	01f888b3          	add	a7,a7,t6

00001930 <.LVL112>:
    1930:	011787b3          	add	a5,a5,a7
    1934:	03ce8eb3          	mul	t4,t4,t3

00001938 <.LVL113>:
    1938:	01f7f463          	bgeu	a5,t6,1940 <.L35>
    193c:	005e8eb3          	add	t4,t4,t0

00001940 <.L35>:
    1940:	00010fb7          	lui	t6,0x10

00001944 <.LVL115>:
    1944:	ffff8f93          	addi	t6,t6,-1 # ffff <.LBB97+0x3>
    1948:	0107d893          	srli	a7,a5,0x10
    194c:	01f7f7b3          	and	a5,a5,t6

00001950 <.LVL116>:
    1950:	01079793          	slli	a5,a5,0x10
    1954:	01ff7f33          	and	t5,t5,t6

00001958 <.LVL117>:
    1958:	01d888b3          	add	a7,a7,t4

0000195c <.LVL118>:
    195c:	01e787b3          	add	a5,a5,t5

00001960 <.LBE56>:
    1960:	17176e63          	bltu	a4,a7,1adc <.L36>
    1964:	17170a63          	beq	a4,a7,1ad8 <.L130>

00001968 <.L37>:
    1968:	40fb07b3          	sub	a5,s6,a5

0000196c <.LVL121>:
    196c:	41170733          	sub	a4,a4,a7

00001970 <.LVL122>:
    1970:	00fb3b33          	sltu	s6,s6,a5

00001974 <.LVL123>:
    1974:	41670733          	sub	a4,a4,s6

00001978 <.LBE57>:
    1978:	2ee60063          	beq	a2,a4,1c58 <.L46>

0000197c <.LBB58>:
    197c:	02a758b3          	divu	a7,a4,a0

00001980 <.LVL126>:
    1980:	0107de93          	srli	t4,a5,0x10
    1984:	02a77733          	remu	a4,a4,a0

00001988 <.LVL127>:
    1988:	03180f33          	mul	t5,a6,a7

0000198c <.LVL128>:
    198c:	01071713          	slli	a4,a4,0x10

00001990 <.LVL129>:
    1990:	00eee733          	or	a4,t4,a4

00001994 <.LVL130>:
    1994:	01e77e63          	bgeu	a4,t5,19b0 <.L47>
    1998:	00e60733          	add	a4,a2,a4

0000199c <.LVL131>:
    199c:	fff88e93          	addi	t4,a7,-1

000019a0 <.LVL132>:
    19a0:	2ec76a63          	bltu	a4,a2,1c94 <.L94>
    19a4:	2fe77863          	bgeu	a4,t5,1c94 <.L94>
    19a8:	ffe88893          	addi	a7,a7,-2

000019ac <.LVL133>:
    19ac:	00c70733          	add	a4,a4,a2

000019b0 <.L47>:
    19b0:	41e70733          	sub	a4,a4,t5

000019b4 <.LVL135>:
    19b4:	02a75eb3          	divu	t4,a4,a0

000019b8 <.LVL136>:
    19b8:	01079793          	slli	a5,a5,0x10

000019bc <.LVL137>:
    19bc:	0107d793          	srli	a5,a5,0x10
    19c0:	02a77733          	remu	a4,a4,a0

000019c4 <.LVL138>:
    19c4:	03d80833          	mul	a6,a6,t4

000019c8 <.LVL139>:
    19c8:	01071713          	slli	a4,a4,0x10

000019cc <.LVL140>:
    19cc:	00e7e7b3          	or	a5,a5,a4

000019d0 <.LVL141>:
    19d0:	0107fe63          	bgeu	a5,a6,19ec <.L50>
    19d4:	00f607b3          	add	a5,a2,a5

000019d8 <.LVL142>:
    19d8:	fffe8713          	addi	a4,t4,-1

000019dc <.LVL143>:
    19dc:	2ac7e863          	bltu	a5,a2,1c8c <.L96>
    19e0:	2b07f663          	bgeu	a5,a6,1c8c <.L96>
    19e4:	ffee8e93          	addi	t4,t4,-2

000019e8 <.LVL144>:
    19e8:	00c787b3          	add	a5,a5,a2

000019ec <.L50>:
    19ec:	01089893          	slli	a7,a7,0x10

000019f0 <.LVL146>:
    19f0:	01d8e8b3          	or	a7,a7,t4
    19f4:	01089513          	slli	a0,a7,0x10

000019f8 <.LBB59>:
    19f8:	0108df13          	srli	t5,a7,0x10
    19fc:	01055513          	srli	a0,a0,0x10
    1a00:	02650eb3          	mul	t4,a0,t1

00001a04 <.LBB60>:
    1a04:	410787b3          	sub	a5,a5,a6

00001a08 <.LBB61>:
    1a08:	02ae0533          	mul	a0,t3,a0

00001a0c <.LVL150>:
    1a0c:	010ed713          	srli	a4,t4,0x10
    1a10:	026f0333          	mul	t1,t5,t1

00001a14 <.LVL151>:
    1a14:	00650533          	add	a0,a0,t1

00001a18 <.LVL152>:
    1a18:	00a70733          	add	a4,a4,a0
    1a1c:	03ee0e33          	mul	t3,t3,t5

00001a20 <.LVL153>:
    1a20:	00677663          	bgeu	a4,t1,1a2c <.L53>
    1a24:	00010537          	lui	a0,0x10
    1a28:	00ae0e33          	add	t3,t3,a0

00001a2c <.L53>:
    1a2c:	00010837          	lui	a6,0x10

00001a30 <.LVL155>:
    1a30:	fff80813          	addi	a6,a6,-1 # ffff <.LBB97+0x3>
    1a34:	01075513          	srli	a0,a4,0x10
    1a38:	01077733          	and	a4,a4,a6

00001a3c <.LVL156>:
    1a3c:	01071713          	slli	a4,a4,0x10
    1a40:	010efeb3          	and	t4,t4,a6

00001a44 <.LVL157>:
    1a44:	01c50533          	add	a0,a0,t3

00001a48 <.LVL158>:
    1a48:	01d70733          	add	a4,a4,t4

00001a4c <.LBE61>:
    1a4c:	12a7f263          	bgeu	a5,a0,1b70 <.L131>

00001a50 <.L54>:
    1a50:	00f607b3          	add	a5,a2,a5

00001a54 <.LVL160>:
    1a54:	fff88313          	addi	t1,a7,-1

00001a58 <.LBB62>:
    1a58:	00078813          	mv	a6,a5

00001a5c <.LBE62>:
    1a5c:	1cc7e463          	bltu	a5,a2,1c24 <.L97>
    1a60:	24a7e863          	bltu	a5,a0,1cb0 <.L60>
    1a64:	26a78663          	beq	a5,a0,1cd0 <.L132>
    1a68:	00030893          	mv	a7,t1

00001a6c <.L55>:
    1a6c:	0018e893          	ori	a7,a7,1

00001a70 <.LBE47>:
  FP_PACK_D (r, R);
    1a70:	d55ff06f          	j	17c4 <.L56>

00001a74 <.L64>:
    1a74:	00100713          	li	a4,1
    1a78:	c2079ce3          	bnez	a5,16b0 <.L133>

00001a7c <.L69>:
    1a7c:	41e98993          	addi	s3,s3,1054
    1a80:	013897b3          	sll	a5,a7,s3
    1a84:	00f037b3          	snez	a5,a5
    1a88:	013419b3          	sll	s3,s0,s3
    1a8c:	0137e7b3          	or	a5,a5,s3
    1a90:	00e8d8b3          	srl	a7,a7,a4
    1a94:	00f8e8b3          	or	a7,a7,a5

00001a98 <.LVL167>:
    1a98:	0078f793          	andi	a5,a7,7
    1a9c:	00e45433          	srl	s0,s0,a4

00001aa0 <.LVL168>:
    1aa0:	02078063          	beqz	a5,1ac0 <.L72>
    1aa4:	00f8f793          	andi	a5,a7,15
    1aa8:	00400713          	li	a4,4
    1aac:	00e78a63          	beq	a5,a4,1ac0 <.L72>

00001ab0 <.LBB22>:
    1ab0:	00488793          	addi	a5,a7,4
    1ab4:	0117b8b3          	sltu	a7,a5,a7

00001ab8 <.LVL169>:
    1ab8:	01140433          	add	s0,s0,a7

00001abc <.LVL170>:
    1abc:	00078893          	mv	a7,a5

00001ac0 <.L72>:
    1ac0:	00841593          	slli	a1,s0,0x8
    1ac4:	00100793          	li	a5,1
    1ac8:	00000613          	li	a2,0
    1acc:	00000713          	li	a4,0
    1ad0:	be05cce3          	bltz	a1,16c8 <.L23>
    1ad4:	1340006f          	j	1c08 <.L79>

00001ad8 <.L130>:
  FP_DIV_D (R, A, B);
    1ad8:	e8fb78e3          	bgeu	s6,a5,1968 <.L37>

00001adc <.L36>:
    1adc:	00bb0eb3          	add	t4,s6,a1

00001ae0 <.LVL173>:
    1ae0:	016ebf33          	sltu	t5,t4,s6

00001ae4 <.LBB63>:
    1ae4:	00cf0fb3          	add	t6,t5,a2

00001ae8 <.LVL174>:
    1ae8:	01f70733          	add	a4,a4,t6

00001aec <.LVL175>:
    1aec:	000e8b13          	mv	s6,t4

00001af0 <.LBE63>:
    1af0:	fff40f93          	addi	t6,s0,-1

00001af4 <.LBB64>:
    1af4:	08e67463          	bgeu	a2,a4,1b7c <.L134>

00001af8 <.L40>:
    1af8:	15176263          	bltu	a4,a7,1c3c <.L41>
    1afc:	12e88e63          	beq	a7,a4,1c38 <.L135>

00001b00 <.L92>:
    1b00:	000f8413          	mv	s0,t6

00001b04 <.LVL178>:
    1b04:	e65ff06f          	j	1968 <.L37>

00001b08 <.L127>:
    1b08:	d71b62e3          	bltu	s6,a7,186c <.L27>

00001b0c <.L26>:
    1b0c:	001b5713          	srli	a4,s6,0x1
    1b10:	01fa9313          	slli	t1,s5,0x1f
    1b14:	001ad793          	srli	a5,s5,0x1

00001b18 <.LVL180>:
    1b18:	00e36333          	or	t1,t1,a4

00001b1c <.LVL181>:
    1b1c:	01fb1b13          	slli	s6,s6,0x1f

00001b20 <.LVL182>:
    1b20:	d5dff06f          	j	187c <.L28>

00001b24 <.L13>:
  FP_UNPACK_D (B, b);
    1b24:	000b8513          	mv	a0,s7
    1b28:	5b0000ef          	jal	20d8 <__clzsi2>

00001b2c <.LVL184>:
    1b2c:	01550693          	addi	a3,a0,21 # 10015 <.LVL173+0x5>
    1b30:	01c00713          	li	a4,28
    1b34:	02050793          	addi	a5,a0,32

00001b38 <.LVL185>:
    1b38:	b4d756e3          	bge	a4,a3,1684 <.L14>
    1b3c:	ff850513          	addi	a0,a0,-8

00001b40 <.LVL186>:
    1b40:	00000893          	li	a7,0
    1b44:	00ab9433          	sll	s0,s7,a0

00001b48 <.LVL187>:
    1b48:	b59ff06f          	j	16a0 <.L16>

00001b4c <.L5>:
  FP_UNPACK_D (A, a);
    1b4c:	58c000ef          	jal	20d8 <__clzsi2>

00001b50 <.LVL189>:
    1b50:	01550693          	addi	a3,a0,21
    1b54:	01c00793          	li	a5,28
    1b58:	02050713          	addi	a4,a0,32

00001b5c <.LVL190>:
    1b5c:	bed7dae3          	bge	a5,a3,1750 <.L6>
    1b60:	ff850793          	addi	a5,a0,-8
    1b64:	00f41ab3          	sll	s5,s0,a5

00001b68 <.LVL191>:
    1b68:	00000b13          	li	s6,0
    1b6c:	c01ff06f          	j	176c <.L8>

00001b70 <.L131>:
  FP_DIV_D (R, A, B);
    1b70:	eea79ee3          	bne	a5,a0,1a6c <.L55>
    1b74:	c40708e3          	beqz	a4,17c4 <.L56>
    1b78:	ed9ff06f          	j	1a50 <.L54>

00001b7c <.L134>:
    1b7c:	f8e612e3          	bne	a2,a4,1b00 <.L92>
    1b80:	f60f0ce3          	beqz	t5,1af8 <.L40>
    1b84:	000f8413          	mv	s0,t6

00001b88 <.LVL194>:
    1b88:	de1ff06f          	j	1968 <.L37>

00001b8c <.L129>:
    1b8c:	d7f774e3          	bgeu	a4,t6,18f4 <.L88>
    1b90:	ffe88893          	addi	a7,a7,-2

00001b94 <.LVL196>:
    1b94:	00c70733          	add	a4,a4,a2
    1b98:	d61ff06f          	j	18f8 <.L32>

00001b9c <.L128>:
    1b9c:	d317f2e3          	bgeu	a5,a7,18c0 <.L86>
    1ba0:	ffe40413          	addi	s0,s0,-2

00001ba4 <.LVL199>:
    1ba4:	00c787b3          	add	a5,a5,a2
    1ba8:	d1dff06f          	j	18c4 <.L29>

00001bac <.L125>:
  FP_PACK_D (r, R);
    1bac:	01f00613          	li	a2,31
    1bb0:	ece656e3          	bge	a2,a4,1a7c <.L69>
    1bb4:	fe100613          	li	a2,-31
    1bb8:	40f607b3          	sub	a5,a2,a5
    1bbc:	02000613          	li	a2,32
    1bc0:	00f457b3          	srl	a5,s0,a5
    1bc4:	00c70863          	beq	a4,a2,1bd4 <.L73>
    1bc8:	43e98993          	addi	s3,s3,1086
    1bcc:	013419b3          	sll	s3,s0,s3
    1bd0:	0138e8b3          	or	a7,a7,s3

00001bd4 <.L73>:
    1bd4:	011038b3          	snez	a7,a7
    1bd8:	00f8e8b3          	or	a7,a7,a5

00001bdc <.LVL202>:
    1bdc:	0078f713          	andi	a4,a7,7

00001be0 <.LVL203>:
    1be0:	00000613          	li	a2,0
    1be4:	02070863          	beqz	a4,1c14 <.L75>
    1be8:	00f8f793          	andi	a5,a7,15
    1bec:	00400713          	li	a4,4
    1bf0:	00000413          	li	s0,0
    1bf4:	00e78a63          	beq	a5,a4,1c08 <.L79>

00001bf8 <.LBB25>:
    1bf8:	00488793          	addi	a5,a7,4
    1bfc:	0117b8b3          	sltu	a7,a5,a7

00001c00 <.LVL204>:
    1c00:	01103433          	snez	s0,a7
    1c04:	00078893          	mv	a7,a5

00001c08 <.L79>:
    1c08:	00941613          	slli	a2,s0,0x9

00001c0c <.LBB78>:
    1c0c:	01d41713          	slli	a4,s0,0x1d

00001c10 <.LBB79>:
    1c10:	00c65613          	srli	a2,a2,0xc

00001c14 <.L75>:
    1c14:	0038d893          	srli	a7,a7,0x3

00001c18 <.LVL207>:
    1c18:	00e8e733          	or	a4,a7,a4

00001c1c <.LVL208>:
    1c1c:	00000793          	li	a5,0
    1c20:	aa9ff06f          	j	16c8 <.L23>

00001c24 <.L97>:
  FP_DIV_D (R, A, B);
    1c24:	00030893          	mv	a7,t1

00001c28 <.LVL210>:
    1c28:	e4a812e3          	bne	a6,a0,1a6c <.L55>

00001c2c <.L61>:
    1c2c:	b8b70ce3          	beq	a4,a1,17c4 <.L56>

00001c30 <.L122>:
    1c30:	0018e893          	ori	a7,a7,1

00001c34 <.LBE81>:
  FP_PACK_D (r, R);
    1c34:	b91ff06f          	j	17c4 <.L56>

00001c38 <.L135>:
  FP_DIV_D (R, A, B);
    1c38:	ecfef4e3          	bgeu	t4,a5,1b00 <.L92>

00001c3c <.L41>:
    1c3c:	01d58eb3          	add	t4,a1,t4

00001c40 <.LBB66>:
    1c40:	00bebf33          	sltu	t5,t4,a1
    1c44:	00cf0f33          	add	t5,t5,a2

00001c48 <.LBE66>:
    1c48:	ffe40413          	addi	s0,s0,-2

00001c4c <.LBB67>:
    1c4c:	000e8b13          	mv	s6,t4

00001c50 <.LVL215>:
    1c50:	01e70733          	add	a4,a4,t5
    1c54:	d15ff06f          	j	1968 <.L37>

00001c58 <.L46>:
  FP_PACK_D (r, R);
    1c58:	c0200713          	li	a4,-1022

00001c5c <.LVL218>:
    1c5c:	3ff98793          	addi	a5,s3,1023

00001c60 <.LBB83>:
  FP_DIV_D (R, A, B);
    1c60:	fff00893          	li	a7,-1

00001c64 <.LBE83>:
  FP_PACK_D (r, R);
    1c64:	e0e9c8e3          	blt	s3,a4,1a74 <.L64>

00001c68 <.L78>:
    1c68:	00488713          	addi	a4,a7,4
    1c6c:	011738b3          	sltu	a7,a4,a7
    1c70:	01140433          	add	s0,s0,a7
    1c74:	00070893          	mv	a7,a4

00001c78 <.LVL222>:
    1c78:	b5dff06f          	j	17d4 <.L65>

00001c7c <.L126>:
    1c7c:	00f8f713          	andi	a4,a7,15
    1c80:	00400613          	li	a2,4
    1c84:	b4c708e3          	beq	a4,a2,17d4 <.L65>
    1c88:	fe1ff06f          	j	1c68 <.L78>

00001c8c <.L96>:
  FP_DIV_D (R, A, B);
    1c8c:	00070e93          	mv	t4,a4
    1c90:	d5dff06f          	j	19ec <.L50>

00001c94 <.L94>:
    1c94:	000e8893          	mv	a7,t4
    1c98:	d19ff06f          	j	19b0 <.L47>

00001c9c <.L62>:
  FP_PACK_D (r, R);
    1c9c:	00090693          	mv	a3,s2
    1ca0:	7ff00793          	li	a5,2047
    1ca4:	00000613          	li	a2,0

00001ca8 <.LBE86>:
    1ca8:	00000713          	li	a4,0
    1cac:	a1dff06f          	j	16c8 <.L23>

00001cb0 <.L60>:
  FP_DIV_D (R, A, B);
    1cb0:	00159313          	slli	t1,a1,0x1

00001cb4 <.LVL229>:
    1cb4:	00b33833          	sltu	a6,t1,a1
    1cb8:	00c80833          	add	a6,a6,a2
    1cbc:	01078833          	add	a6,a5,a6

00001cc0 <.LBE69>:
    1cc0:	ffe88893          	addi	a7,a7,-2

00001cc4 <.LBB70>:
    1cc4:	00030593          	mv	a1,t1

00001cc8 <.LBE70>:
    1cc8:	f6a802e3          	beq	a6,a0,1c2c <.L61>
    1ccc:	da1ff06f          	j	1a6c <.L55>

00001cd0 <.L132>:
    1cd0:	fee5e0e3          	bltu	a1,a4,1cb0 <.L60>
    1cd4:	00030893          	mv	a7,t1

00001cd8 <.LVL233>:
    1cd8:	f4b71ce3          	bne	a4,a1,1c30 <.L122>
    1cdc:	ae9ff06f          	j	17c4 <.L56>

00001ce0 <__gedf2>:
  FP_DECL_D (A);
  FP_DECL_D (B);
  CMPtype r;

  FP_INIT_EXCEPTIONS;
  FP_UNPACK_RAW_D (A, a);
    1ce0:	0145d893          	srli	a7,a1,0x14
    1ce4:	001007b7          	lui	a5,0x100
    1ce8:	fff78793          	addi	a5,a5,-1 # fffff <_ebss+0xd552f>

00001cec <.LBB3>:
  FP_UNPACK_RAW_D (B, b);
    1cec:	0146d713          	srli	a4,a3,0x14

00001cf0 <.LBB4>:
  FP_UNPACK_RAW_D (A, a);
    1cf0:	7ff8f893          	andi	a7,a7,2047

00001cf4 <.LBE4>:
  FP_CMP_D (r, A, B, -2, 2);
    1cf4:	7ff00e13          	li	t3,2047

00001cf8 <.LBB5>:
  FP_UNPACK_RAW_D (A, a);
    1cf8:	00b7f333          	and	t1,a5,a1

00001cfc <.LBE5>:
{
    1cfc:	00050813          	mv	a6,a0
    1d00:	00050e93          	mv	t4,a0

00001d04 <.LBB6>:
  FP_UNPACK_RAW_D (B, b);
    1d04:	00d7f7b3          	and	a5,a5,a3

00001d08 <.LBB8>:
  FP_UNPACK_RAW_D (A, a);
    1d08:	01f5d593          	srli	a1,a1,0x1f

00001d0c <.LBB9>:
  FP_UNPACK_RAW_D (B, b);
    1d0c:	00060f13          	mv	t5,a2

00001d10 <.LVL3>:
    1d10:	7ff77513          	andi	a0,a4,2047

00001d14 <.LVL4>:
    1d14:	01f6d693          	srli	a3,a3,0x1f

00001d18 <.LBE9>:
  FP_CMP_D (r, A, B, -2, 2);
    1d18:	05c88863          	beq	a7,t3,1d68 <.L67>
    1d1c:	03c50463          	beq	a0,t3,1d44 <.L68>

00001d20 <.LBB10>:
    1d20:	06089a63          	bnez	a7,1d94 <.L69>
    1d24:	01036833          	or	a6,t1,a6

00001d28 <.LVL6>:
    1d28:	06051063          	bnez	a0,1d88 <.L70>
    1d2c:	00c7e633          	or	a2,a5,a2

00001d30 <.LVL7>:
    1d30:	08060c63          	beqz	a2,1dc8 <.L15>

00001d34 <.LVL8>:
    1d34:	0a081263          	bnez	a6,1dd8 <.L71>

00001d38 <.L11>:
    1d38:	00100513          	li	a0,1

00001d3c <.LVL10>:
    1d3c:	08068263          	beqz	a3,1dc0 <.L32>

00001d40 <.L1>:
  FP_HANDLE_EXCEPTIONS;

  return r;
}
    1d40:	00008067          	ret

00001d44 <.L68>:
  FP_CMP_D (r, A, B, -2, 2);
    1d44:	00c7e633          	or	a2,a5,a2

00001d48 <.LVL13>:
    1d48:	08061463          	bnez	a2,1dd0 <.L26>

00001d4c <.LBB11>:
    1d4c:	00089663          	bnez	a7,1d58 <.L56>

00001d50 <.LVL14>:
    1d50:	01036333          	or	t1,t1,a6

00001d54 <.LVL15>:
    1d54:	fe0302e3          	beqz	t1,1d38 <.L11>

00001d58 <.L56>:
    1d58:	06d58063          	beq	a1,a3,1db8 <.L21>

00001d5c <.L20>:
    1d5c:	06059263          	bnez	a1,1dc0 <.L32>
    1d60:	00100513          	li	a0,1

00001d64 <.LVL18>:
    1d64:	00008067          	ret

00001d68 <.L67>:
    1d68:	01036333          	or	t1,t1,a6

00001d6c <.LVL20>:
    1d6c:	06031263          	bnez	t1,1dd0 <.L26>
    1d70:	ff1516e3          	bne	a0,a7,1d5c <.L20>
    1d74:	00c7e7b3          	or	a5,a5,a2

00001d78 <.LVL21>:
    1d78:	04079c63          	bnez	a5,1dd0 <.L26>

00001d7c <.LBB12>:
    1d7c:	fed590e3          	bne	a1,a3,1d5c <.L20>
    1d80:	00000513          	li	a0,0

00001d84 <.LVL22>:
    1d84:	00008067          	ret

00001d88 <.L70>:
    1d88:	fa0808e3          	beqz	a6,1d38 <.L11>

00001d8c <.LVL24>:
    1d8c:	fcd598e3          	bne	a1,a3,1d5c <.L20>
    1d90:	0280006f          	j	1db8 <.L21>

00001d94 <.L69>:
    1d94:	fc0504e3          	beqz	a0,1d5c <.L20>

00001d98 <.LVL26>:
    1d98:	fcd592e3          	bne	a1,a3,1d5c <.L20>
    1d9c:	fd1540e3          	blt	a0,a7,1d5c <.L20>
    1da0:	00a8cc63          	blt	a7,a0,1db8 <.L21>

00001da4 <.L19>:
    1da4:	fa67ece3          	bltu	a5,t1,1d5c <.L20>
    1da8:	00f31863          	bne	t1,a5,1db8 <.L21>
    1dac:	fbdf68e3          	bltu	t5,t4,1d5c <.L20>
    1db0:	00000513          	li	a0,0

00001db4 <.LVL28>:
    1db4:	f9eef6e3          	bgeu	t4,t5,1d40 <.L1>

00001db8 <.L21>:
    1db8:	00100513          	li	a0,1
    1dbc:	f80592e3          	bnez	a1,1d40 <.L1>

00001dc0 <.L32>:
    1dc0:	fff00513          	li	a0,-1
    1dc4:	00008067          	ret

00001dc8 <.L15>:
    1dc8:	f8081ae3          	bnez	a6,1d5c <.L20>

00001dcc <.LBE12>:
}
    1dcc:	00008067          	ret

00001dd0 <.L26>:
  FP_CMP_D (r, A, B, -2, 2);
    1dd0:	ffe00513          	li	a0,-2

00001dd4 <.LVL33>:
    1dd4:	00008067          	ret

00001dd8 <.L71>:
    1dd8:	fcd586e3          	beq	a1,a3,1da4 <.L19>
    1ddc:	f81ff06f          	j	1d5c <.L20>

00001de0 <__ledf2>:
  FP_DECL_D (A);
  FP_DECL_D (B);
  CMPtype r;

  FP_INIT_EXCEPTIONS;
  FP_UNPACK_RAW_D (A, a);
    1de0:	0145d893          	srli	a7,a1,0x14
    1de4:	001007b7          	lui	a5,0x100
    1de8:	fff78793          	addi	a5,a5,-1 # fffff <_ebss+0xd552f>

00001dec <.LBB3>:
  FP_UNPACK_RAW_D (B, b);
    1dec:	0146d713          	srli	a4,a3,0x14

00001df0 <.LBB4>:
  FP_UNPACK_RAW_D (A, a);
    1df0:	7ff8f893          	andi	a7,a7,2047

00001df4 <.LBE4>:
  FP_CMP_D (r, A, B, 2, 2);
    1df4:	7ff00313          	li	t1,2047

00001df8 <.LBB5>:
  FP_UNPACK_RAW_D (A, a);
    1df8:	00b7fe33          	and	t3,a5,a1

00001dfc <.LBE5>:
{
    1dfc:	00050813          	mv	a6,a0
    1e00:	00050e93          	mv	t4,a0

00001e04 <.LBB6>:
  FP_UNPACK_RAW_D (B, b);
    1e04:	00d7f7b3          	and	a5,a5,a3

00001e08 <.LBB8>:
  FP_UNPACK_RAW_D (A, a);
    1e08:	01f5d593          	srli	a1,a1,0x1f

00001e0c <.LBB9>:
  FP_UNPACK_RAW_D (B, b);
    1e0c:	00060f13          	mv	t5,a2

00001e10 <.LVL3>:
    1e10:	7ff77513          	andi	a0,a4,2047

00001e14 <.LVL4>:
    1e14:	01f6d693          	srli	a3,a3,0x1f

00001e18 <.LBE9>:
  FP_CMP_D (r, A, B, 2, 2);
    1e18:	04688a63          	beq	a7,t1,1e6c <.L67>
    1e1c:	02650463          	beq	a0,t1,1e44 <.L68>

00001e20 <.LBB10>:
    1e20:	06089863          	bnez	a7,1e90 <.L69>
    1e24:	010e6833          	or	a6,t3,a6

00001e28 <.LVL6>:
    1e28:	08051e63          	bnez	a0,1ec4 <.L70>
    1e2c:	00c7e633          	or	a2,a5,a2

00001e30 <.LVL7>:
    1e30:	0a060463          	beqz	a2,1ed8 <.L15>

00001e34 <.LVL8>:
    1e34:	0a081663          	bnez	a6,1ee0 <.L71>

00001e38 <.L11>:
    1e38:	00100513          	li	a0,1
    1e3c:	08068063          	beqz	a3,1ebc <.L32>

00001e40 <.L1>:
  FP_HANDLE_EXCEPTIONS;

  return r;
}
    1e40:	00008067          	ret

00001e44 <.L68>:
  FP_CMP_D (r, A, B, 2, 2);
    1e44:	00c7e633          	or	a2,a5,a2

00001e48 <.LVL12>:
    1e48:	00200513          	li	a0,2

00001e4c <.LVL13>:
    1e4c:	fe061ae3          	bnez	a2,1e40 <.L1>

00001e50 <.LBB11>:
    1e50:	00089663          	bnez	a7,1e5c <.L56>

00001e54 <.LVL14>:
    1e54:	010e6e33          	or	t3,t3,a6

00001e58 <.LVL15>:
    1e58:	fe0e00e3          	beqz	t3,1e38 <.L11>

00001e5c <.L56>:
    1e5c:	04d58c63          	beq	a1,a3,1eb4 <.L21>

00001e60 <.L20>:
    1e60:	04059e63          	bnez	a1,1ebc <.L32>
    1e64:	00100513          	li	a0,1
    1e68:	00008067          	ret

00001e6c <.L67>:
    1e6c:	010e6e33          	or	t3,t3,a6

00001e70 <.LVL19>:
    1e70:	060e1063          	bnez	t3,1ed0 <.L24>
    1e74:	ff1516e3          	bne	a0,a7,1e60 <.L20>
    1e78:	00c7e7b3          	or	a5,a5,a2

00001e7c <.LVL20>:
    1e7c:	00200513          	li	a0,2

00001e80 <.LVL21>:
    1e80:	fc0790e3          	bnez	a5,1e40 <.L1>

00001e84 <.LBB12>:
    1e84:	fcd59ee3          	bne	a1,a3,1e60 <.L20>
    1e88:	00000513          	li	a0,0
    1e8c:	00008067          	ret

00001e90 <.L69>:
    1e90:	fc0508e3          	beqz	a0,1e60 <.L20>

00001e94 <.LVL23>:
    1e94:	fcd596e3          	bne	a1,a3,1e60 <.L20>
    1e98:	fd1544e3          	blt	a0,a7,1e60 <.L20>
    1e9c:	00a8cc63          	blt	a7,a0,1eb4 <.L21>

00001ea0 <.L19>:
    1ea0:	fdc7e0e3          	bltu	a5,t3,1e60 <.L20>
    1ea4:	00fe1863          	bne	t3,a5,1eb4 <.L21>
    1ea8:	fbdf6ce3          	bltu	t5,t4,1e60 <.L20>
    1eac:	00000513          	li	a0,0

00001eb0 <.LVL25>:
    1eb0:	f9eef8e3          	bgeu	t4,t5,1e40 <.L1>

00001eb4 <.L21>:
    1eb4:	00100513          	li	a0,1
    1eb8:	f80594e3          	bnez	a1,1e40 <.L1>

00001ebc <.L32>:
    1ebc:	fff00513          	li	a0,-1
    1ec0:	00008067          	ret

00001ec4 <.L70>:
    1ec4:	f6080ae3          	beqz	a6,1e38 <.L11>

00001ec8 <.LVL29>:
    1ec8:	f8d59ce3          	bne	a1,a3,1e60 <.L20>
    1ecc:	fe9ff06f          	j	1eb4 <.L21>

00001ed0 <.L24>:
    1ed0:	00200513          	li	a0,2

00001ed4 <.LVL31>:
    1ed4:	00008067          	ret

00001ed8 <.L15>:
    1ed8:	f80814e3          	bnez	a6,1e60 <.L20>

00001edc <.LBE13>:
}
    1edc:	00008067          	ret

00001ee0 <.L71>:
  FP_CMP_D (r, A, B, 2, 2);
    1ee0:	fcd580e3          	beq	a1,a3,1ea0 <.L19>
    1ee4:	f7dff06f          	j	1e60 <.L20>

00001ee8 <__fixunsdfsi>:
  FP_DECL_EX;
  FP_DECL_D (A);
  USItype r;

  FP_INIT_EXCEPTIONS;
  FP_UNPACK_RAW_D (A, a);
    1ee8:	0145d793          	srli	a5,a1,0x14
    1eec:	00100637          	lui	a2,0x100
    1ef0:	fff60713          	addi	a4,a2,-1 # fffff <_ebss+0xd552f>
    1ef4:	7ff7f793          	andi	a5,a5,2047

00001ef8 <.LBE2>:
  FP_TO_INT_D (r, A, SI_BITS, 0);
    1ef8:	3fe00813          	li	a6,1022
{
    1efc:	00050693          	mv	a3,a0

00001f00 <.LBB3>:
  FP_UNPACK_RAW_D (A, a);
    1f00:	00b77733          	and	a4,a4,a1

00001f04 <.LBE3>:
  FP_TO_INT_D (r, A, SI_BITS, 0);
    1f04:	00000513          	li	a0,0

00001f08 <.LBB4>:
  FP_UNPACK_RAW_D (A, a);
    1f08:	01f5d593          	srli	a1,a1,0x1f

00001f0c <.LBE4>:
  FP_TO_INT_D (r, A, SI_BITS, 0);
    1f0c:	00f85463          	bge	a6,a5,1f14 <.L1>
    1f10:	00058463          	beqz	a1,1f18 <.L8>

00001f14 <.L1>:
  FP_HANDLE_EXCEPTIONS;

  return r;
}
    1f14:	00008067          	ret

00001f18 <.L8>:
  FP_TO_INT_D (r, A, SI_BITS, 0);
    1f18:	41e00593          	li	a1,1054

00001f1c <.LVL7>:
    1f1c:	fff00513          	li	a0,-1
    1f20:	fef5cae3          	blt	a1,a5,1f14 <.L1>

00001f24 <.LBB5>:
    1f24:	43300593          	li	a1,1075
    1f28:	40f585b3          	sub	a1,a1,a5
    1f2c:	01f00513          	li	a0,31
    1f30:	00c76733          	or	a4,a4,a2
    1f34:	00b54c63          	blt	a0,a1,1f4c <.L3>

00001f38 <.LVL10>:
    1f38:	bed78793          	addi	a5,a5,-1043

00001f3c <.LVL11>:
    1f3c:	00f71733          	sll	a4,a4,a5

00001f40 <.LVL12>:
    1f40:	00b6d533          	srl	a0,a3,a1
    1f44:	00a76533          	or	a0,a4,a0

00001f48 <.LVL13>:
    1f48:	00008067          	ret

00001f4c <.L3>:
    1f4c:	41300513          	li	a0,1043
    1f50:	40f50533          	sub	a0,a0,a5
    1f54:	00a75533          	srl	a0,a4,a0

00001f58 <.LVL15>:
    1f58:	00008067          	ret

00001f5c <__floatsidf>:
#include "soft-fp.h"
#include "double.h"

DFtype
__floatsidf (SItype i)
{
    1f5c:	ff010113          	addi	sp,sp,-16
    1f60:	00112623          	sw	ra,12(sp)
    1f64:	00812423          	sw	s0,8(sp)
    1f68:	00912223          	sw	s1,4(sp)

00001f6c <.LBB16>:
  FP_DECL_D (A);
  DFtype a;

  FP_FROM_INT_D (A, i, SI_BITS, USItype);
    1f6c:	04050a63          	beqz	a0,1fc0 <.L5>

00001f70 <.LBB3>:
    1f70:	41f55713          	srai	a4,a0,0x1f
    1f74:	00a744b3          	xor	s1,a4,a0
    1f78:	40e484b3          	sub	s1,s1,a4
    1f7c:	00050793          	mv	a5,a0

00001f80 <.LBB4>:
    1f80:	00048513          	mv	a0,s1

00001f84 <.LBE4>:
    1f84:	01f7d413          	srli	s0,a5,0x1f

00001f88 <.LBB5>:
    1f88:	150000ef          	jal	20d8 <__clzsi2>

00001f8c <.LBB6>:
    1f8c:	41e00793          	li	a5,1054
    1f90:	40a787b3          	sub	a5,a5,a0

00001f94 <.LBE6>:
    1f94:	00a00713          	li	a4,10

00001f98 <.LBB17>:
  FP_PACK_RAW_D (a, A);
    1f98:	7ff7f793          	andi	a5,a5,2047

00001f9c <.LBB11>:
  FP_FROM_INT_D (A, i, SI_BITS, USItype);
    1f9c:	06a74063          	blt	a4,a0,1ffc <.L4>

00001fa0 <.LVL7>:
    1fa0:	00b00713          	li	a4,11
    1fa4:	40a70733          	sub	a4,a4,a0
    1fa8:	00e4d733          	srl	a4,s1,a4
    1fac:	01550513          	addi	a0,a0,21

00001fb0 <.LBB19>:
  FP_PACK_RAW_D (a, A);
    1fb0:	00c71713          	slli	a4,a4,0xc

00001fb4 <.LBB12>:
  FP_FROM_INT_D (A, i, SI_BITS, USItype);
    1fb4:	00a494b3          	sll	s1,s1,a0

00001fb8 <.LBB21>:
  FP_PACK_RAW_D (a, A);
    1fb8:	00c75713          	srli	a4,a4,0xc

00001fbc <.LBB13>:
    1fbc:	0140006f          	j	1fd0 <.L2>

00001fc0 <.L5>:
    1fc0:	00000413          	li	s0,0
    1fc4:	00000793          	li	a5,0
    1fc8:	00000713          	li	a4,0
  FP_FROM_INT_D (A, i, SI_BITS, USItype);
    1fcc:	00000493          	li	s1,0

00001fd0 <.L2>:
  FP_PACK_RAW_D (a, A);
    1fd0:	01479793          	slli	a5,a5,0x14
    1fd4:	01f41413          	slli	s0,s0,0x1f
    1fd8:	00e7e7b3          	or	a5,a5,a4

00001fdc <.LBE23>:

  return a;
}
    1fdc:	00c12083          	lw	ra,12(sp)

00001fe0 <.LBB24>:
  FP_PACK_RAW_D (a, A);
    1fe0:	0087e7b3          	or	a5,a5,s0

00001fe4 <.LBE24>:
}
    1fe4:	00812403          	lw	s0,8(sp)
    1fe8:	00048513          	mv	a0,s1
    1fec:	00078593          	mv	a1,a5
    1ff0:	00412483          	lw	s1,4(sp)

00001ff4 <.LVL13>:
    1ff4:	01010113          	addi	sp,sp,16
    1ff8:	00008067          	ret

00001ffc <.L4>:
  FP_FROM_INT_D (A, i, SI_BITS, USItype);
    1ffc:	ff550513          	addi	a0,a0,-11

00002000 <.LVL15>:
    2000:	00a49733          	sll	a4,s1,a0

00002004 <.LBB26>:
  FP_PACK_RAW_D (a, A);
    2004:	00c71713          	slli	a4,a4,0xc
    2008:	00c75713          	srli	a4,a4,0xc

0000200c <.LBB15>:
  FP_FROM_INT_D (A, i, SI_BITS, USItype);
    200c:	00000493          	li	s1,0

00002010 <.LVL16>:
    2010:	fc1ff06f          	j	1fd0 <.L2>

00002014 <__floatunsidf>:
#include "soft-fp.h"
#include "double.h"

DFtype
__floatunsidf (USItype i)
{
    2014:	ff010113          	addi	sp,sp,-16
    2018:	00812423          	sw	s0,8(sp)
    201c:	00112623          	sw	ra,12(sp)
    2020:	00050413          	mv	s0,a0

00002024 <.LBB10>:
  FP_DECL_D (A);
  DFtype a;

  FP_FROM_INT_D (A, i, SI_BITS, USItype);
    2024:	04050c63          	beqz	a0,207c <.L4>

00002028 <.LBB3>:
    2028:	0b0000ef          	jal	20d8 <__clzsi2>

0000202c <.LBB5>:
    202c:	41e00793          	li	a5,1054
    2030:	40a787b3          	sub	a5,a5,a0

00002034 <.LBE5>:
    2034:	00a00713          	li	a4,10

00002038 <.LBB11>:
  FP_PACK_RAW_D (a, A);
    2038:	7ff7f793          	andi	a5,a5,2047

0000203c <.LBB12>:
  FP_FROM_INT_D (A, i, SI_BITS, USItype);
    203c:	06a74463          	blt	a4,a0,20a4 <.L3>
    2040:	00b00713          	li	a4,11
    2044:	40a70733          	sub	a4,a4,a0
    2048:	01550513          	addi	a0,a0,21

0000204c <.LVL5>:
    204c:	00e45733          	srl	a4,s0,a4

00002050 <.LVL6>:
    2050:	00a41433          	sll	s0,s0,a0

00002054 <.LBE12>:

  return a;
}
    2054:	00c12083          	lw	ra,12(sp)
    2058:	00040513          	mv	a0,s0

0000205c <.LBB13>:
  FP_PACK_RAW_D (a, A);
    205c:	00c71713          	slli	a4,a4,0xc

00002060 <.LBE13>:
}
    2060:	00812403          	lw	s0,8(sp)

00002064 <.LBB14>:
  FP_PACK_RAW_D (a, A);
    2064:	00c75713          	srli	a4,a4,0xc

00002068 <.LBB15>:
    2068:	01479793          	slli	a5,a5,0x14
    206c:	00e7e7b3          	or	a5,a5,a4

00002070 <.LBE15>:
}
    2070:	00078593          	mv	a1,a5
    2074:	01010113          	addi	sp,sp,16
    2078:	00008067          	ret

0000207c <.L4>:
    207c:	00c12083          	lw	ra,12(sp)
    2080:	00040513          	mv	a0,s0

00002084 <.LBB17>:
    2084:	00000793          	li	a5,0

00002088 <.LBE17>:
    2088:	00812403          	lw	s0,8(sp)

0000208c <.LBB18>:
    208c:	00000713          	li	a4,0

00002090 <.LBB19>:
  FP_PACK_RAW_D (a, A);
    2090:	01479793          	slli	a5,a5,0x14
    2094:	00e7e7b3          	or	a5,a5,a4

00002098 <.LBE19>:
}
    2098:	00078593          	mv	a1,a5
    209c:	01010113          	addi	sp,sp,16
    20a0:	00008067          	ret

000020a4 <.L3>:
  FP_FROM_INT_D (A, i, SI_BITS, USItype);
    20a4:	ff550513          	addi	a0,a0,-11

000020a8 <.LVL15>:
    20a8:	00a41733          	sll	a4,s0,a0
    20ac:	00000413          	li	s0,0

000020b0 <.LBB21>:
}
    20b0:	00c12083          	lw	ra,12(sp)
    20b4:	00040513          	mv	a0,s0

000020b8 <.LBB22>:
  FP_PACK_RAW_D (a, A);
    20b8:	00c71713          	slli	a4,a4,0xc

000020bc <.LBE22>:
}
    20bc:	00812403          	lw	s0,8(sp)

000020c0 <.LBB23>:
  FP_PACK_RAW_D (a, A);
    20c0:	00c75713          	srli	a4,a4,0xc
    20c4:	01479793          	slli	a5,a5,0x14
    20c8:	00e7e7b3          	or	a5,a5,a4

000020cc <.LBE23>:
}
    20cc:	00078593          	mv	a1,a5
    20d0:	01010113          	addi	sp,sp,16
    20d4:	00008067          	ret

000020d8 <__clzsi2>:
int
__clzSI2 (UWtype x)
{
  Wtype ret;

  count_leading_zeros (ret, x);
    20d8:	000107b7          	lui	a5,0x10
    20dc:	02f57a63          	bgeu	a0,a5,2110 <.L2>
    20e0:	10053793          	sltiu	a5,a0,256
    20e4:	0017b793          	seqz	a5,a5
    20e8:	00379793          	slli	a5,a5,0x3

000020ec <.LVL1>:
    20ec:	02000713          	li	a4,32
    20f0:	40f70733          	sub	a4,a4,a5

000020f4 <.LBB3>:
    20f4:	00f55533          	srl	a0,a0,a5

000020f8 <.LVL3>:
    20f8:	00012797          	auipc	a5,0x12
    20fc:	3b47a783          	lw	a5,948(a5) # 144ac <_GLOBAL_OFFSET_TABLE_+0xa4>

00002100 <.LVL4>:
    2100:	00a787b3          	add	a5,a5,a0
    2104:	0007c503          	lbu	a0,0(a5)

00002108 <.LBE3>:

  return ret;
}
    2108:	40a70533          	sub	a0,a4,a0
    210c:	00008067          	ret

00002110 <.L2>:
  count_leading_zeros (ret, x);
    2110:	010007b7          	lui	a5,0x1000
    2114:	02f57463          	bgeu	a0,a5,213c <.L4>
    2118:	01000793          	li	a5,16

0000211c <.LVL6>:
    211c:	00f55533          	srl	a0,a0,a5

00002120 <.LVL7>:
    2120:	00012797          	auipc	a5,0x12
    2124:	38c7a783          	lw	a5,908(a5) # 144ac <_GLOBAL_OFFSET_TABLE_+0xa4>

00002128 <.LVL8>:
    2128:	00a787b3          	add	a5,a5,a0
    212c:	0007c503          	lbu	a0,0(a5)
    2130:	01000713          	li	a4,16

00002134 <.LBE4>:
}
    2134:	40a70533          	sub	a0,a4,a0
    2138:	00008067          	ret

0000213c <.L4>:
  count_leading_zeros (ret, x);
    213c:	01800793          	li	a5,24

00002140 <.LVL11>:
    2140:	00f55533          	srl	a0,a0,a5

00002144 <.LVL12>:
    2144:	00012797          	auipc	a5,0x12
    2148:	3687a783          	lw	a5,872(a5) # 144ac <_GLOBAL_OFFSET_TABLE_+0xa4>

0000214c <.LVL13>:
    214c:	00a787b3          	add	a5,a5,a0
    2150:	0007c503          	lbu	a0,0(a5)
    2154:	00800713          	li	a4,8

00002158 <.LBE5>:
}
    2158:	40a70533          	sub	a0,a4,a0
    215c:	00008067          	ret

00002160 <puts>:
    2160:	fd010113          	addi	sp,sp,-48
    2164:	00012797          	auipc	a5,0x12
    2168:	2ac7a783          	lw	a5,684(a5) # 14410 <_GLOBAL_OFFSET_TABLE_+0x8>
    216c:	02912223          	sw	s1,36(sp)
    2170:	0007a483          	lw	s1,0(a5)
    2174:	03212023          	sw	s2,32(sp)
    2178:	02812423          	sw	s0,40(sp)
    217c:	0384a903          	lw	s2,56(s1)
    2180:	02112623          	sw	ra,44(sp)
    2184:	01312e23          	sw	s3,28(sp)
    2188:	00050413          	mv	s0,a0
    218c:	02091a63          	bnez	s2,21c0 <.L2>
    2190:	03c48993          	addi	s3,s1,60
    2194:	00010513          	mv	a0,sp
    2198:	00012317          	auipc	t1,0x12
    219c:	2f832303          	lw	t1,760(t1) # 14490 <_GLOBAL_OFFSET_TABLE_+0x88>
    21a0:	00098613          	mv	a2,s3
    21a4:	00012597          	auipc	a1,0x12
    21a8:	2b45a583          	lw	a1,692(a1) # 14458 <_GLOBAL_OFFSET_TABLE_+0x50>
    21ac:	000300e7          	jalr	t1
    21b0:	00098513          	mv	a0,s3
    21b4:	00012317          	auipc	t1,0x12
    21b8:	26432303          	lw	t1,612(t1) # 14418 <_GLOBAL_OFFSET_TABLE_+0x10>
    21bc:	000300e7          	jalr	t1

000021c0 <.L2>:
    21c0:	00048593          	mv	a1,s1
    21c4:	00040513          	mv	a0,s0
    21c8:	5a4010ef          	jal	376c <__GI_fputs_unlocked>
    21cc:	fff00993          	li	s3,-1
    21d0:	05351063          	bne	a0,s3,2210 <.L3>

000021d4 <.L5>:
    21d4:	fff00413          	li	s0,-1

000021d8 <.L4>:
    21d8:	00091c63          	bnez	s2,21f0 <.L1>
    21dc:	00100593          	li	a1,1
    21e0:	00010513          	mv	a0,sp
    21e4:	00012317          	auipc	t1,0x12
    21e8:	26432303          	lw	t1,612(t1) # 14448 <_GLOBAL_OFFSET_TABLE_+0x40>
    21ec:	000300e7          	jalr	t1

000021f0 <.L1>:
    21f0:	02c12083          	lw	ra,44(sp)
    21f4:	00040513          	mv	a0,s0
    21f8:	02812403          	lw	s0,40(sp)
    21fc:	02412483          	lw	s1,36(sp)
    2200:	02012903          	lw	s2,32(sp)
    2204:	01c12983          	lw	s3,28(sp)
    2208:	03010113          	addi	sp,sp,48
    220c:	00008067          	ret

00002210 <.L3>:
    2210:	00150413          	addi	s0,a0,1
    2214:	00048593          	mv	a1,s1
    2218:	00a00513          	li	a0,10
    221c:	450010ef          	jal	366c <__GI___fputc_unlocked>
    2220:	fb351ce3          	bne	a0,s3,21d8 <.L4>
    2224:	fb1ff06f          	j	21d4 <.L5>

00002228 <__GI_printf>:
    2228:	fc010113          	addi	sp,sp,-64
    222c:	02b12223          	sw	a1,36(sp)
    2230:	02c12423          	sw	a2,40(sp)
    2234:	02f12a23          	sw	a5,52(sp)
    2238:	02d12623          	sw	a3,44(sp)
    223c:	02e12823          	sw	a4,48(sp)
    2240:	03012c23          	sw	a6,56(sp)
    2244:	03112e23          	sw	a7,60(sp)
    2248:	00012797          	auipc	a5,0x12
    224c:	1c87a783          	lw	a5,456(a5) # 14410 <_GLOBAL_OFFSET_TABLE_+0x8>
    2250:	00050593          	mv	a1,a0
    2254:	0007a503          	lw	a0,0(a5)
    2258:	02410613          	addi	a2,sp,36
    225c:	00112e23          	sw	ra,28(sp)
    2260:	00c12623          	sw	a2,12(sp)
    2264:	1cc000ef          	jal	2430 <__GI_vfprintf>
    2268:	01c12083          	lw	ra,28(sp)
    226c:	04010113          	addi	sp,sp,64
    2270:	00008067          	ret

00002274 <__stdio_init_mutex>:
    2274:	01800613          	li	a2,24
    2278:	98418593          	addi	a1,gp,-1660 # 146a4 <__stdio_mutex_initializer.0>
    227c:	5f00106f          	j	386c <__GI_memcpy>

00002280 <_stdio_term>:
    2280:	fe010113          	addi	sp,sp,-32
    2284:	0001c517          	auipc	a0,0x1c
    2288:	c3450513          	addi	a0,a0,-972 # 1deb8 <_stdio_openlist_add_lock>
    228c:	00112e23          	sw	ra,28(sp)
    2290:	00812c23          	sw	s0,24(sp)
    2294:	00912a23          	sw	s1,20(sp)
    2298:	01312623          	sw	s3,12(sp)
    229c:	01412423          	sw	s4,8(sp)
    22a0:	01512223          	sw	s5,4(sp)
    22a4:	01212823          	sw	s2,16(sp)
    22a8:	fcdff0ef          	jal	2274 <__stdio_init_mutex>
    22ac:	0001c517          	auipc	a0,0x1c
    22b0:	c2450513          	addi	a0,a0,-988 # 1ded0 <_stdio_openlist_del_lock>
    22b4:	00012497          	auipc	s1,0x12
    22b8:	1ac4a483          	lw	s1,428(s1) # 14460 <_GLOBAL_OFFSET_TABLE_+0x58>
    22bc:	fb9ff0ef          	jal	2274 <__stdio_init_mutex>
    22c0:	0004a403          	lw	s0,0(s1)
    22c4:	00012997          	auipc	s3,0x12
    22c8:	1989a983          	lw	s3,408(s3) # 1445c <_GLOBAL_OFFSET_TABLE_+0x54>
    22cc:	03000a13          	li	s4,48
    22d0:	00100a93          	li	s5,1

000022d4 <.L3>:
    22d4:	02041a63          	bnez	s0,2308 <.L5>
    22d8:	0004a403          	lw	s0,0(s1)
    22dc:	ffe00493          	li	s1,-2

000022e0 <.L6>:
    22e0:	06041263          	bnez	s0,2344 <.L9>
    22e4:	01c12083          	lw	ra,28(sp)
    22e8:	01812403          	lw	s0,24(sp)
    22ec:	01412483          	lw	s1,20(sp)
    22f0:	01012903          	lw	s2,16(sp)
    22f4:	00c12983          	lw	s3,12(sp)
    22f8:	00812a03          	lw	s4,8(sp)
    22fc:	00412a83          	lw	s5,4(sp)
    2300:	02010113          	addi	sp,sp,32
    2304:	00008067          	ret

00002308 <.L5>:
    2308:	03c40913          	addi	s2,s0,60
    230c:	00090513          	mv	a0,s2
    2310:	000980e7          	jalr	s3
    2314:	00050e63          	beqz	a0,2330 <.L4>
    2318:	00842783          	lw	a5,8(s0)
    231c:	01441023          	sh	s4,0(s0)
    2320:	00f42c23          	sw	a5,24(s0)
    2324:	00f42e23          	sw	a5,28(s0)
    2328:	00f42823          	sw	a5,16(s0)
    232c:	00f42a23          	sw	a5,20(s0)

00002330 <.L4>:
    2330:	03542c23          	sw	s5,56(s0)
    2334:	00090513          	mv	a0,s2
    2338:	f3dff0ef          	jal	2274 <__stdio_init_mutex>
    233c:	02042403          	lw	s0,32(s0)
    2340:	f95ff06f          	j	22d4 <.L3>

00002344 <.L9>:
    2344:	00045783          	lhu	a5,0(s0)
    2348:	0407f793          	andi	a5,a5,64
    234c:	00078663          	beqz	a5,2358 <.L7>
    2350:	00040513          	mv	a0,s0
    2354:	098000ef          	jal	23ec <__stdio_wcommit>

00002358 <.L7>:
    2358:	00442783          	lw	a5,4(s0)
    235c:	00979a63          	bne	a5,s1,2370 <.L8>
    2360:	06442783          	lw	a5,100(s0)
    2364:	00078663          	beqz	a5,2370 <.L8>
    2368:	05442503          	lw	a0,84(s0)
    236c:	000780e7          	jalr	a5

00002370 <.L8>:
    2370:	02042403          	lw	s0,32(s0)
    2374:	f6dff06f          	j	22e0 <.L6>

00002378 <_stdio_init>:
    2378:	ff010113          	addi	sp,sp,-16
    237c:	00812423          	sw	s0,8(sp)
    2380:	00912223          	sw	s1,4(sp)
    2384:	00112623          	sw	ra,12(sp)
    2388:	1cd020ef          	jal	4d54 <__errno_location>
    238c:	00052483          	lw	s1,0(a0)
    2390:	00050413          	mv	s0,a0
    2394:	00000513          	li	a0,0
    2398:	2a9010ef          	jal	3e40 <__GI_isatty>
    239c:	00051c63          	bnez	a0,23b4 <.L21>
    23a0:	0001c717          	auipc	a4,0x1c
    23a4:	d2870713          	addi	a4,a4,-728 # 1e0c8 <_stdio_streams>
    23a8:	00075783          	lhu	a5,0(a4)
    23ac:	1007c793          	xori	a5,a5,256
    23b0:	00f71023          	sh	a5,0(a4)

000023b4 <.L21>:
    23b4:	00100513          	li	a0,1
    23b8:	289010ef          	jal	3e40 <__GI_isatty>
    23bc:	00051c63          	bnez	a0,23d4 <.L22>
    23c0:	0001c717          	auipc	a4,0x1c
    23c4:	d0870713          	addi	a4,a4,-760 # 1e0c8 <_stdio_streams>
    23c8:	05475783          	lhu	a5,84(a4)
    23cc:	1007c793          	xori	a5,a5,256
    23d0:	04f71a23          	sh	a5,84(a4)

000023d4 <.L22>:
    23d4:	00942023          	sw	s1,0(s0)
    23d8:	00c12083          	lw	ra,12(sp)
    23dc:	00812403          	lw	s0,8(sp)
    23e0:	00412483          	lw	s1,4(sp)
    23e4:	01010113          	addi	sp,sp,16
    23e8:	00008067          	ret

000023ec <__stdio_wcommit>:
    23ec:	00852583          	lw	a1,8(a0)
    23f0:	01052783          	lw	a5,16(a0)
    23f4:	ff010113          	addi	sp,sp,-16
    23f8:	00812423          	sw	s0,8(sp)
    23fc:	00112623          	sw	ra,12(sp)
    2400:	00050413          	mv	s0,a0
    2404:	40b78633          	sub	a2,a5,a1
    2408:	00b78663          	beq	a5,a1,2414 <.L2>
    240c:	00b52823          	sw	a1,16(a0)
    2410:	468070ef          	jal	9878 <__stdio_WRITE>

00002414 <.L2>:
    2414:	01042503          	lw	a0,16(s0)
    2418:	00842783          	lw	a5,8(s0)
    241c:	00c12083          	lw	ra,12(sp)
    2420:	00812403          	lw	s0,8(sp)
    2424:	40f50533          	sub	a0,a0,a5
    2428:	01010113          	addi	sp,sp,16
    242c:	00008067          	ret

00002430 <__GI_vfprintf>:
    2430:	fd010113          	addi	sp,sp,-48
    2434:	01312e23          	sw	s3,28(sp)
    2438:	03852983          	lw	s3,56(a0)
    243c:	02812423          	sw	s0,40(sp)
    2440:	02912223          	sw	s1,36(sp)
    2444:	03212023          	sw	s2,32(sp)
    2448:	02112623          	sw	ra,44(sp)
    244c:	01412c23          	sw	s4,24(sp)
    2450:	00050413          	mv	s0,a0
    2454:	00058493          	mv	s1,a1
    2458:	00060913          	mv	s2,a2
    245c:	02099a63          	bnez	s3,2490 <.L2>
    2460:	03c50a13          	addi	s4,a0,60
    2464:	00012317          	auipc	t1,0x12
    2468:	02c32303          	lw	t1,44(t1) # 14490 <_GLOBAL_OFFSET_TABLE_+0x88>
    246c:	00010513          	mv	a0,sp
    2470:	000a0613          	mv	a2,s4
    2474:	00012597          	auipc	a1,0x12
    2478:	fe45a583          	lw	a1,-28(a1) # 14458 <_GLOBAL_OFFSET_TABLE_+0x50>
    247c:	000300e7          	jalr	t1
    2480:	000a0513          	mv	a0,s4
    2484:	00012317          	auipc	t1,0x12
    2488:	f9432303          	lw	t1,-108(t1) # 14418 <_GLOBAL_OFFSET_TABLE_+0x10>
    248c:	000300e7          	jalr	t1

00002490 <.L2>:
    2490:	00045783          	lhu	a5,0(s0)
    2494:	0c000713          	li	a4,192
    2498:	0c07f793          	andi	a5,a5,192
    249c:	04e79a63          	bne	a5,a4,24f0 <.L3>

000024a0 <.L5>:
    24a0:	00040513          	mv	a0,s0
    24a4:	00090613          	mv	a2,s2
    24a8:	00048593          	mv	a1,s1
    24ac:	184000ef          	jal	2630 <_vfprintf_internal>
    24b0:	00050413          	mv	s0,a0

000024b4 <.L4>:
    24b4:	00099c63          	bnez	s3,24cc <.L1>
    24b8:	00100593          	li	a1,1
    24bc:	00010513          	mv	a0,sp
    24c0:	00012317          	auipc	t1,0x12
    24c4:	f8832303          	lw	t1,-120(t1) # 14448 <_GLOBAL_OFFSET_TABLE_+0x40>
    24c8:	000300e7          	jalr	t1

000024cc <.L1>:
    24cc:	02c12083          	lw	ra,44(sp)
    24d0:	00040513          	mv	a0,s0
    24d4:	02812403          	lw	s0,40(sp)
    24d8:	02412483          	lw	s1,36(sp)
    24dc:	02012903          	lw	s2,32(sp)
    24e0:	01c12983          	lw	s3,28(sp)
    24e4:	01812a03          	lw	s4,24(sp)
    24e8:	03010113          	addi	sp,sp,48
    24ec:	00008067          	ret

000024f0 <.L3>:
    24f0:	08000593          	li	a1,128
    24f4:	00040513          	mv	a0,s0
    24f8:	155070ef          	jal	9e4c <__stdio_trans2w_o>
    24fc:	fa0502e3          	beqz	a0,24a0 <.L5>
    2500:	fff00413          	li	s0,-1
    2504:	fb1ff06f          	j	24b4 <.L4>

00002508 <_charpad>:
    2508:	fd010113          	addi	sp,sp,-48
    250c:	02812423          	sw	s0,40(sp)
    2510:	02912223          	sw	s1,36(sp)
    2514:	03212023          	sw	s2,32(sp)
    2518:	01312e23          	sw	s3,28(sp)
    251c:	02112623          	sw	ra,44(sp)
    2520:	00050913          	mv	s2,a0
    2524:	00060413          	mv	s0,a2
    2528:	00b10623          	sb	a1,12(sp)
    252c:	00060493          	mv	s1,a2
    2530:	00c10993          	addi	s3,sp,12

00002534 <.L2>:
    2534:	00048e63          	beqz	s1,2550 <.L5>
    2538:	00090613          	mv	a2,s2
    253c:	00100593          	li	a1,1
    2540:	00098513          	mv	a0,s3
    2544:	7b8070ef          	jal	9cfc <__stdio_fwrite>
    2548:	00100793          	li	a5,1
    254c:	02f50263          	beq	a0,a5,2570 <.L4>

00002550 <.L5>:
    2550:	40940533          	sub	a0,s0,s1
    2554:	02c12083          	lw	ra,44(sp)
    2558:	02812403          	lw	s0,40(sp)
    255c:	02412483          	lw	s1,36(sp)
    2560:	02012903          	lw	s2,32(sp)
    2564:	01c12983          	lw	s3,28(sp)
    2568:	03010113          	addi	sp,sp,48
    256c:	00008067          	ret

00002570 <.L4>:
    2570:	fff48493          	addi	s1,s1,-1
    2574:	fc1ff06f          	j	2534 <.L2>

00002578 <_fp_out_narrow>:
    2578:	fe010113          	addi	sp,sp,-32
    257c:	00912a23          	sw	s1,20(sp)
    2580:	01312623          	sw	s3,12(sp)
    2584:	01412423          	sw	s4,8(sp)
    2588:	00112e23          	sw	ra,28(sp)
    258c:	00812c23          	sw	s0,24(sp)
    2590:	01212823          	sw	s2,16(sp)
    2594:	01512223          	sw	s5,4(sp)
    2598:	0805f793          	andi	a5,a1,128
    259c:	00050a13          	mv	s4,a0
    25a0:	00060493          	mv	s1,a2
    25a4:	00068993          	mv	s3,a3
    25a8:	06078e63          	beqz	a5,2624 <.L12>
    25ac:	00068513          	mv	a0,a3
    25b0:	00058a93          	mv	s5,a1
    25b4:	604010ef          	jal	3bb8 <__GI_strlen>
    25b8:	40a484b3          	sub	s1,s1,a0
    25bc:	00050913          	mv	s2,a0
    25c0:	00000413          	li	s0,0
    25c4:	00905e63          	blez	s1,25e0 <.L9>
    25c8:	00048613          	mv	a2,s1
    25cc:	07faf593          	andi	a1,s5,127
    25d0:	000a0513          	mv	a0,s4
    25d4:	f35ff0ef          	jal	2508 <_charpad>
    25d8:	00050413          	mv	s0,a0
    25dc:	02a49063          	bne	s1,a0,25fc <.L8>

000025e0 <.L9>:
    25e0:	00000513          	li	a0,0
    25e4:	01205a63          	blez	s2,25f8 <.L11>
    25e8:	000a0613          	mv	a2,s4
    25ec:	00090593          	mv	a1,s2
    25f0:	00098513          	mv	a0,s3
    25f4:	708070ef          	jal	9cfc <__stdio_fwrite>

000025f8 <.L11>:
    25f8:	00a40433          	add	s0,s0,a0

000025fc <.L8>:
    25fc:	01c12083          	lw	ra,28(sp)
    2600:	00040513          	mv	a0,s0
    2604:	01812403          	lw	s0,24(sp)
    2608:	01412483          	lw	s1,20(sp)
    260c:	01012903          	lw	s2,16(sp)
    2610:	00c12983          	lw	s3,12(sp)
    2614:	00812a03          	lw	s4,8(sp)
    2618:	00412a83          	lw	s5,4(sp)
    261c:	02010113          	addi	sp,sp,32
    2620:	00008067          	ret

00002624 <.L12>:
    2624:	00060913          	mv	s2,a2
    2628:	00000413          	li	s0,0
    262c:	fb5ff06f          	j	25e0 <.L9>

00002630 <_vfprintf_internal>:
    2630:	e2010113          	addi	sp,sp,-480
    2634:	1d612023          	sw	s6,448(sp)
    2638:	0c010b13          	addi	s6,sp,192
    263c:	00a12223          	sw	a0,4(sp)
    2640:	000b0513          	mv	a0,s6
    2644:	1c812c23          	sw	s0,472(sp)
    2648:	1c912a23          	sw	s1,468(sp)
    264c:	1c112e23          	sw	ra,476(sp)
    2650:	1d212823          	sw	s2,464(sp)
    2654:	1d312623          	sw	s3,460(sp)
    2658:	1d412423          	sw	s4,456(sp)
    265c:	1d512223          	sw	s5,452(sp)
    2660:	1b712e23          	sw	s7,444(sp)
    2664:	1b812c23          	sw	s8,440(sp)
    2668:	1b912a23          	sw	s9,436(sp)
    266c:	1ba12823          	sw	s10,432(sp)
    2670:	1bb12623          	sw	s11,428(sp)
    2674:	00058413          	mv	s0,a1
    2678:	00060493          	mv	s1,a2
    267c:	68c000ef          	jal	2d08 <_ppfs_init>
    2680:	06055663          	bgez	a0,26ec <.L17>
    2684:	0c012403          	lw	s0,192(sp)
    2688:	00040513          	mv	a0,s0
    268c:	52c010ef          	jal	3bb8 <__GI_strlen>
    2690:	00050593          	mv	a1,a0
    2694:	04051463          	bnez	a0,26dc <.L18>

00002698 <.L58>:
    2698:	fff00a13          	li	s4,-1

0000269c <.L16>:
    269c:	1dc12083          	lw	ra,476(sp)
    26a0:	1d812403          	lw	s0,472(sp)
    26a4:	1d412483          	lw	s1,468(sp)
    26a8:	1d012903          	lw	s2,464(sp)
    26ac:	1cc12983          	lw	s3,460(sp)
    26b0:	1c412a83          	lw	s5,452(sp)
    26b4:	1c012b03          	lw	s6,448(sp)
    26b8:	1bc12b83          	lw	s7,444(sp)
    26bc:	1b812c03          	lw	s8,440(sp)
    26c0:	1b412c83          	lw	s9,436(sp)
    26c4:	1b012d03          	lw	s10,432(sp)
    26c8:	1ac12d83          	lw	s11,428(sp)
    26cc:	000a0513          	mv	a0,s4
    26d0:	1c812a03          	lw	s4,456(sp)
    26d4:	1e010113          	addi	sp,sp,480
    26d8:	00008067          	ret

000026dc <.L18>:
    26dc:	00412603          	lw	a2,4(sp)
    26e0:	00040513          	mv	a0,s0
    26e4:	618070ef          	jal	9cfc <__stdio_fwrite>
    26e8:	fb1ff06f          	j	2698 <.L58>

000026ec <.L17>:
    26ec:	000b0513          	mv	a0,s6
    26f0:	00048593          	mv	a1,s1
    26f4:	73c000ef          	jal	2e30 <_ppfs_prepargs>
    26f8:	00040513          	mv	a0,s0
    26fc:	00000a13          	li	s4,0
    2700:	11010b93          	addi	s7,sp,272
    2704:	02410c93          	addi	s9,sp,36
    2708:	02010d13          	addi	s10,sp,32
    270c:	04010c13          	addi	s8,sp,64

00002710 <.L21>:
    2710:	00044783          	lbu	a5,0(s0)
    2714:	50078c63          	beqz	a5,2c2c <.L22>
    2718:	02500713          	li	a4,37
    271c:	00e79663          	bne	a5,a4,2728 <.L23>
    2720:	52a40a63          	beq	s0,a0,2c54 <.L82>
    2724:	50c0006f          	j	2c30 <.L81>

00002728 <.L23>:
    2728:	00140413          	addi	s0,s0,1
    272c:	fe5ff06f          	j	2710 <.L21>

00002730 <.L30>:
    2730:	00a6a023          	sw	a0,0(a3)
    2734:	00170713          	addi	a4,a4,1
    2738:	00468693          	addi	a3,a3,4
    273c:	5700006f          	j	2cac <.L29>

00002740 <.L31>:
    2740:	00700713          	li	a4,7
    2744:	26f76a63          	bltu	a4,a5,29b8 <.L33>
    2748:	0001b717          	auipc	a4,0x1b
    274c:	62870713          	addi	a4,a4,1576 # 1dd70 <spec_base.1>
    2750:	00f70733          	add	a4,a4,a5
    2754:	fff74683          	lbu	a3,-1(a4)
    2758:	00a00613          	li	a2,10
    275c:	05700713          	li	a4,87
    2760:	02c69263          	bne	a3,a2,2784 <.L34>
    2764:	0d012603          	lw	a2,208(sp)
    2768:	02c00713          	li	a4,44
    276c:	02067513          	andi	a0,a2,32
    2770:	00051463          	bnez	a0,2778 <.L35>
    2774:	05700713          	li	a4,87

00002778 <.L35>:
    2778:	04067613          	andi	a2,a2,64
    277c:	00060463          	beqz	a2,2784 <.L34>
    2780:	08076713          	ori	a4,a4,128

00002784 <.L34>:
    2784:	00500613          	li	a2,5
    2788:	10f66463          	bltu	a2,a5,2890 <.L36>
    278c:	00300613          	li	a2,3
    2790:	10c78463          	beq	a5,a2,2898 <.L86>
    2794:	00100613          	li	a2,1
    2798:	00600993          	li	s3,6
    279c:	00c78463          	beq	a5,a2,27a4 <.L37>

000027a0 <.L123>:
    27a0:	00b00993          	li	s3,11

000027a4 <.L37>:
    27a4:	0c412603          	lw	a2,196(sp)
    27a8:	02000a93          	li	s5,32
    27ac:	00065463          	bgez	a2,27b4 <.L38>
    27b0:	0d414a83          	lbu	s5,212(sp)

000027b4 <.L38>:
    27b4:	00100613          	li	a2,1
    27b8:	40000513          	li	a0,1024
    27bc:	02c78263          	beq	a5,a2,27e0 <.L39>
    27c0:	00259593          	slli	a1,a1,0x2
    27c4:	19058793          	addi	a5,a1,400
    27c8:	01010613          	addi	a2,sp,16
    27cc:	00c785b3          	add	a1,a5,a2
    27d0:	f445a503          	lw	a0,-188(a1)
    27d4:	000017b7          	lui	a5,0x1
    27d8:	f0078793          	addi	a5,a5,-256 # f00 <matrix_test+0x134>
    27dc:	00f57533          	and	a0,a0,a5

000027e0 <.L39>:
    27e0:	02c12583          	lw	a1,44(sp)
    27e4:	00068613          	mv	a2,a3
    27e8:	00e12623          	sw	a4,12(sp)
    27ec:	00d12423          	sw	a3,8(sp)
    27f0:	750070ef          	jal	9f40 <_load_inttype>
    27f4:	00c12703          	lw	a4,12(sp)
    27f8:	00812683          	lw	a3,8(sp)
    27fc:	0bf10413          	addi	s0,sp,191
    2800:	00058613          	mv	a2,a1
    2804:	00050593          	mv	a1,a0
    2808:	00040513          	mv	a0,s0
    280c:	7ec070ef          	jal	9ff8 <_uintmaxtostr>
    2810:	0e012703          	lw	a4,224(sp)
    2814:	00500793          	li	a5,5
    2818:	00050493          	mv	s1,a0
    281c:	02e7f263          	bgeu	a5,a4,2840 <.L40>
    2820:	00054603          	lbu	a2,0(a0)
    2824:	02d00693          	li	a3,45
    2828:	0d012783          	lw	a5,208(sp)
    282c:	06d61c63          	bne	a2,a3,28a4 <.L41>
    2830:	0027e793          	ori	a5,a5,2
    2834:	0cf12823          	sw	a5,208(sp)
    2838:	00150493          	addi	s1,a0,1
    283c:	00200993          	li	s3,2

00002840 <.L40>:
    2840:	0c412903          	lw	s2,196(sp)
    2844:	40940433          	sub	s0,s0,s1
    2848:	00095463          	bgez	s2,2850 <.L42>
    284c:	00100913          	li	s2,1

00002850 <.L42>:
    2850:	0d012683          	lw	a3,208(sp)
    2854:	0004c783          	lbu	a5,0(s1)
    2858:	0106f693          	andi	a3,a3,16
    285c:	06068463          	beqz	a3,28c4 <.L43>
    2860:	00200693          	li	a3,2
    2864:	48e6f663          	bgeu	a3,a4,2cf0 <.L92>
    2868:	00300693          	li	a3,3
    286c:	48d70a63          	beq	a4,a3,2d00 <.L93>
    2870:	00400693          	li	a3,4
    2874:	04d71863          	bne	a4,a3,28c4 <.L43>
    2878:	05246663          	bltu	s0,s2,28c4 <.L43>
    287c:	03000693          	li	a3,48
    2880:	00140913          	addi	s2,s0,1
    2884:	06d79063          	bne	a5,a3,28e4 <.L46>
    2888:	00100913          	li	s2,1
    288c:	0400006f          	j	28cc <.L45>

00002890 <.L36>:
    2890:	40d006b3          	neg	a3,a3
    2894:	f0dff06f          	j	27a0 <.L123>

00002898 <.L86>:
    2898:	00b00993          	li	s3,11
    289c:	03700713          	li	a4,55
    28a0:	f05ff06f          	j	27a4 <.L37>

000028a4 <.L41>:
    28a4:	0027f693          	andi	a3,a5,2
    28a8:	00069a63          	bnez	a3,28bc <.L90>
    28ac:	0017f793          	andi	a5,a5,1
    28b0:	f80788e3          	beqz	a5,2840 <.L40>
    28b4:	00400993          	li	s3,4
    28b8:	f89ff06f          	j	2840 <.L40>

000028bc <.L90>:
    28bc:	00000993          	li	s3,0
    28c0:	f81ff06f          	j	2840 <.L40>

000028c4 <.L43>:
    28c4:	03000693          	li	a3,48
    28c8:	00d79e63          	bne	a5,a3,28e4 <.L46>

000028cc <.L45>:
    28cc:	00500793          	li	a5,5
    28d0:	0137d463          	bge	a5,s3,28d8 <.L47>

000028d4 <.L104>:
    28d4:	00b00993          	li	s3,11

000028d8 <.L47>:
    28d8:	00100793          	li	a5,1
    28dc:	0cf70063          	beq	a4,a5,299c <.L96>
    28e0:	0c090863          	beqz	s2,29b0 <.L97>

000028e4 <.L46>:
    28e4:	0d247263          	bgeu	s0,s2,29a8 <.L98>
    28e8:	40890933          	sub	s2,s2,s0

000028ec <.L48>:
    28ec:	00b00713          	li	a4,11
    28f0:	008907b3          	add	a5,s2,s0
    28f4:	00e98a63          	beq	s3,a4,2908 <.L67>
    28f8:	00500713          	li	a4,5
    28fc:	01372733          	slt	a4,a4,s3
    2900:	00170713          	addi	a4,a4,1
    2904:	00e787b3          	add	a5,a5,a4

00002908 <.L67>:
    2908:	0c812703          	lw	a4,200(sp)
    290c:	00000d93          	li	s11,0
    2910:	00e7f463          	bgeu	a5,a4,2918 <.L69>
    2914:	40f70db3          	sub	s11,a4,a5

00002918 <.L69>:
    2918:	00fa07b3          	add	a5,s4,a5
    291c:	01b78a33          	add	s4,a5,s11
    2920:	03000793          	li	a5,48
    2924:	00fa9663          	bne	s5,a5,2930 <.L70>
    2928:	01b90933          	add	s2,s2,s11
    292c:	00000d93          	li	s11,0

00002930 <.L70>:
    2930:	0d012783          	lw	a5,208(sp)
    2934:	0087f793          	andi	a5,a5,8
    2938:	00079e63          	bnez	a5,2954 <.L71>
    293c:	00412503          	lw	a0,4(sp)
    2940:	000d8613          	mv	a2,s11
    2944:	02000593          	li	a1,32
    2948:	bc1ff0ef          	jal	2508 <_charpad>
    294c:	d4ad96e3          	bne	s11,a0,2698 <.L58>
    2950:	00000d93          	li	s11,0

00002954 <.L71>:
    2954:	00412583          	lw	a1,4(sp)
    2958:	99c18513          	addi	a0,gp,-1636 # 146bc <prefix.0>
    295c:	01350533          	add	a0,a0,s3
    2960:	60d000ef          	jal	376c <__GI_fputs_unlocked>
    2964:	00412503          	lw	a0,4(sp)
    2968:	00090613          	mv	a2,s2
    296c:	03000593          	li	a1,48
    2970:	b99ff0ef          	jal	2508 <_charpad>
    2974:	d2a912e3          	bne	s2,a0,2698 <.L58>
    2978:	02012783          	lw	a5,32(sp)
    297c:	26079063          	bnez	a5,2bdc <.L72>
    2980:	24041263          	bnez	s0,2bc4 <.L73>

00002984 <.L74>:
    2984:	00412503          	lw	a0,4(sp)
    2988:	000d8613          	mv	a2,s11
    298c:	02000593          	li	a1,32
    2990:	b79ff0ef          	jal	2508 <_charpad>
    2994:	34ad8863          	beq	s11,a0,2ce4 <.L32>
    2998:	d01ff06f          	j	2698 <.L58>

0000299c <.L96>:
    299c:	0001b497          	auipc	s1,0x1b
    29a0:	3c448493          	addi	s1,s1,964 # 1dd60 <.LC0>
    29a4:	00500413          	li	s0,5

000029a8 <.L98>:
    29a8:	00000913          	li	s2,0
    29ac:	f41ff06f          	j	28ec <.L48>

000029b0 <.L97>:
    29b0:	00000413          	li	s0,0
    29b4:	ff5ff06f          	j	29a8 <.L98>

000029b8 <.L33>:
    29b8:	00f00713          	li	a4,15
    29bc:	08f76063          	bltu	a4,a5,2a3c <.L49>
    29c0:	0d012703          	lw	a4,208(sp)
    29c4:	02c12783          	lw	a5,44(sp)
    29c8:	01010413          	addi	s0,sp,16
    29cc:	01471693          	slli	a3,a4,0x14
    29d0:	0406d463          	bgez	a3,2a18 <.L50>
    29d4:	0007a603          	lw	a2,0(a5)
    29d8:	0047a683          	lw	a3,4(a5)
    29dc:	0087a703          	lw	a4,8(a5)
    29e0:	00c7a783          	lw	a5,12(a5)

000029e4 <.L51>:
    29e4:	00412503          	lw	a0,4(sp)
    29e8:	00c12823          	sw	a2,16(sp)
    29ec:	00d12a23          	sw	a3,20(sp)
    29f0:	0c410613          	addi	a2,sp,196
    29f4:	00000697          	auipc	a3,0x0
    29f8:	b8468693          	addi	a3,a3,-1148 # 2578 <_fp_out_narrow>
    29fc:	00040593          	mv	a1,s0
    2a00:	00e12c23          	sw	a4,24(sp)
    2a04:	00f12e23          	sw	a5,28(sp)
    2a08:	7d8070ef          	jal	a1e0 <_fpmaxtostr>

00002a0c <.L125>:
    2a0c:	c80546e3          	bltz	a0,2698 <.L58>
    2a10:	00aa0a33          	add	s4,s4,a0
    2a14:	2d00006f          	j	2ce4 <.L32>

00002a18 <.L50>:
    2a18:	0047a603          	lw	a2,4(a5)
    2a1c:	0007a583          	lw	a1,0(a5)
    2a20:	00040513          	mv	a0,s0
    2a24:	371100ef          	jal	13594 <__extenddftf2>
    2a28:	01012603          	lw	a2,16(sp)
    2a2c:	01412683          	lw	a3,20(sp)
    2a30:	01812703          	lw	a4,24(sp)
    2a34:	01c12783          	lw	a5,28(sp)
    2a38:	fadff06f          	j	29e4 <.L51>

00002a3c <.L49>:
    2a3c:	01100693          	li	a3,17
    2a40:	08f6e663          	bltu	a3,a5,2acc <.L53>
    2a44:	02012223          	sw	zero,36(sp)
    2a48:	02c12703          	lw	a4,44(sp)
    2a4c:	04d79663          	bne	a5,a3,2a98 <.L54>
    2a50:	00072703          	lw	a4,0(a4)
    2a54:	0c412783          	lw	a5,196(sp)
    2a58:	02e12023          	sw	a4,32(sp)
    2a5c:	0a070463          	beqz	a4,2b04 <.L55>
    2a60:	fff00613          	li	a2,-1
    2a64:	0007c463          	bltz	a5,2a6c <.L56>
    2a68:	00078613          	mv	a2,a5

00002a6c <.L56>:
    2a6c:	02010593          	addi	a1,sp,32
    2a70:	02410693          	addi	a3,sp,36
    2a74:	00058513          	mv	a0,a1
    2a78:	71c060ef          	jal	9194 <__GI_wcsrtombs>
    2a7c:	fff00793          	li	a5,-1
    2a80:	00050413          	mv	s0,a0
    2a84:	c0f50ae3          	beq	a0,a5,2698 <.L58>
    2a88:	00000493          	li	s1,0

00002a8c <.L126>:
    2a8c:	02000a93          	li	s5,32
    2a90:	00b00993          	li	s3,11
    2a94:	f15ff06f          	j	29a8 <.L98>

00002a98 <.L54>:
    2a98:	00072583          	lw	a1,0(a4)
    2a9c:	04010493          	addi	s1,sp,64
    2aa0:	02410613          	addi	a2,sp,36
    2aa4:	00048513          	mv	a0,s1
    2aa8:	688060ef          	jal	9130 <__GI_wcrtomb>
    2aac:	fff00793          	li	a5,-1
    2ab0:	00050413          	mv	s0,a0
    2ab4:	bef502e3          	beq	a0,a5,2698 <.L58>
    2ab8:	19050793          	addi	a5,a0,400
    2abc:	01010713          	addi	a4,sp,16
    2ac0:	00e787b3          	add	a5,a5,a4
    2ac4:	ea078023          	sb	zero,-352(a5)
    2ac8:	fc5ff06f          	j	2a8c <.L126>

00002acc <.L53>:
    2acc:	01300713          	li	a4,19
    2ad0:	08f76063          	bltu	a4,a5,2b50 <.L59>
    2ad4:	02c12683          	lw	a3,44(sp)
    2ad8:	0006a483          	lw	s1,0(a3)
    2adc:	04e79a63          	bne	a5,a4,2b30 <.L60>
    2ae0:	02048263          	beqz	s1,2b04 <.L55>

00002ae4 <.L61>:
    2ae4:	0c412783          	lw	a5,196(sp)
    2ae8:	fff00593          	li	a1,-1
    2aec:	0007c463          	bltz	a5,2af4 <.L62>
    2af0:	00078593          	mv	a1,a5

00002af4 <.L62>:
    2af4:	00048513          	mv	a0,s1
    2af8:	154010ef          	jal	3c4c <__GI_strnlen>
    2afc:	00050413          	mv	s0,a0
    2b00:	f8dff06f          	j	2a8c <.L126>

00002b04 <.L55>:
    2b04:	0c412703          	lw	a4,196(sp)
    2b08:	00500793          	li	a5,5
    2b0c:	0001b497          	auipc	s1,0x1b
    2b10:	25c48493          	addi	s1,s1,604 # 1dd68 <.LC1>
    2b14:	02000a93          	li	s5,32
    2b18:	00b00993          	li	s3,11
    2b1c:	00000913          	li	s2,0
    2b20:	00600413          	li	s0,6
    2b24:	dce7e4e3          	bltu	a5,a4,28ec <.L48>
    2b28:	00000413          	li	s0,0
    2b2c:	dc1ff06f          	j	28ec <.L48>

00002b30 <.L60>:
    2b30:	04910023          	sb	s1,64(sp)
    2b34:	040100a3          	sb	zero,65(sp)
    2b38:	04010493          	addi	s1,sp,64
    2b3c:	02000a93          	li	s5,32
    2b40:	00b00993          	li	s3,11
    2b44:	00000913          	li	s2,0
    2b48:	00100413          	li	s0,1
    2b4c:	da1ff06f          	j	28ec <.L48>

00002b50 <.L59>:
    2b50:	01400713          	li	a4,20
    2b54:	02e79063          	bne	a5,a4,2b74 <.L63>
    2b58:	1fc020ef          	jal	4d54 <__errno_location>
    2b5c:	00052503          	lw	a0,0(a0)
    2b60:	08000613          	li	a2,128
    2b64:	04010593          	addi	a1,sp,64
    2b68:	1b0010ef          	jal	3d18 <__GI___glibc_strerror_r>
    2b6c:	00050493          	mv	s1,a0
    2b70:	f75ff06f          	j	2ae4 <.L61>

00002b74 <.L63>:
    2b74:	0cc12583          	lw	a1,204(sp)
    2b78:	0001b717          	auipc	a4,0x1b
    2b7c:	66472703          	lw	a4,1636(a4) # 1e1dc <_custom_printf_spec>
    2b80:	00a70693          	addi	a3,a4,10
    2b84:	00070793          	mv	a5,a4

00002b88 <.L65>:
    2b88:	0007c503          	lbu	a0,0(a5)
    2b8c:	02b51663          	bne	a0,a1,2bb8 <.L64>
    2b90:	40e787b3          	sub	a5,a5,a4
    2b94:	00279793          	slli	a5,a5,0x2
    2b98:	00027717          	auipc	a4,0x27
    2b9c:	3bc70713          	addi	a4,a4,956 # 29f54 <_custom_printf_handler>
    2ba0:	00f707b3          	add	a5,a4,a5
    2ba4:	0007a783          	lw	a5,0(a5)
    2ba8:	00412503          	lw	a0,4(sp)
    2bac:	0c410593          	addi	a1,sp,196
    2bb0:	000780e7          	jalr	a5
    2bb4:	e59ff06f          	j	2a0c <.L125>

00002bb8 <.L64>:
    2bb8:	00178793          	addi	a5,a5,1
    2bbc:	fcd796e3          	bne	a5,a3,2b88 <.L65>
    2bc0:	ad9ff06f          	j	2698 <.L58>

00002bc4 <.L73>:
    2bc4:	00412603          	lw	a2,4(sp)
    2bc8:	00040593          	mv	a1,s0
    2bcc:	00048513          	mv	a0,s1
    2bd0:	12c070ef          	jal	9cfc <__stdio_fwrite>
    2bd4:	daa408e3          	beq	s0,a0,2984 <.L74>
    2bd8:	ac1ff06f          	j	2698 <.L58>

00002bdc <.L72>:
    2bdc:	02012223          	sw	zero,36(sp)
    2be0:	08000913          	li	s2,128

00002be4 <.L75>:
    2be4:	da0400e3          	beqz	s0,2984 <.L74>
    2be8:	00040613          	mv	a2,s0
    2bec:	00897463          	bgeu	s2,s0,2bf4 <.L76>
    2bf0:	08000613          	li	a2,128

00002bf4 <.L76>:
    2bf4:	000c8693          	mv	a3,s9
    2bf8:	000d0593          	mv	a1,s10
    2bfc:	000c0513          	mv	a0,s8
    2c00:	594060ef          	jal	9194 <__GI_wcsrtombs>
    2c04:	00050493          	mv	s1,a0
    2c08:	00051663          	bnez	a0,2c14 <.L77>

00002c0c <.L78>:
    2c0c:	40940433          	sub	s0,s0,s1
    2c10:	fd5ff06f          	j	2be4 <.L75>

00002c14 <.L77>:
    2c14:	00412603          	lw	a2,4(sp)
    2c18:	00050593          	mv	a1,a0
    2c1c:	000c0513          	mv	a0,s8
    2c20:	0dc070ef          	jal	9cfc <__stdio_fwrite>
    2c24:	fea484e3          	beq	s1,a0,2c0c <.L78>
    2c28:	a71ff06f          	j	2698 <.L58>

00002c2c <.L22>:
    2c2c:	a6a408e3          	beq	s0,a0,269c <.L16>

00002c30 <.L81>:
    2c30:	40a404b3          	sub	s1,s0,a0
    2c34:	a69052e3          	blez	s1,2698 <.L58>
    2c38:	00412603          	lw	a2,4(sp)
    2c3c:	00048593          	mv	a1,s1
    2c40:	0bc070ef          	jal	9cfc <__stdio_fwrite>
    2c44:	a4a49ae3          	bne	s1,a0,2698 <.L58>
    2c48:	00044783          	lbu	a5,0(s0)
    2c4c:	009a0a33          	add	s4,s4,s1
    2c50:	a40786e3          	beqz	a5,269c <.L16>

00002c54 <.L82>:
    2c54:	00144703          	lbu	a4,1(s0)
    2c58:	02500793          	li	a5,37
    2c5c:	00140513          	addi	a0,s0,1
    2c60:	00240413          	addi	s0,s0,2
    2c64:	aaf706e3          	beq	a4,a5,2710 <.L21>
    2c68:	0ca12023          	sw	a0,192(sp)
    2c6c:	000b0513          	mv	a0,s6
    2c70:	02012023          	sw	zero,32(sp)
    2c74:	3b8000ef          	jal	302c <_ppfs_parsespec>
    2c78:	000b0513          	mv	a0,s6
    2c7c:	200000ef          	jal	2e7c <_ppfs_setargs>
    2c80:	0d812703          	lw	a4,216(sp)
    2c84:	0e614583          	lbu	a1,230(sp)
    2c88:	000b8793          	mv	a5,s7
    2c8c:	00e05863          	blez	a4,2c9c <.L28>
    2c90:	00459793          	slli	a5,a1,0x4
    2c94:	ff078793          	addi	a5,a5,-16
    2c98:	00fb87b3          	add	a5,s7,a5

00002c9c <.L28>:
    2c9c:	0dc12803          	lw	a6,220(sp)
    2ca0:	02c10693          	addi	a3,sp,44
    2ca4:	00000713          	li	a4,0
    2ca8:	00068613          	mv	a2,a3

00002cac <.L29>:
    2cac:	00471513          	slli	a0,a4,0x4
    2cb0:	00a78533          	add	a0,a5,a0
    2cb4:	a7074ee3          	blt	a4,a6,2730 <.L30>
    2cb8:	0e012783          	lw	a5,224(sp)
    2cbc:	a80792e3          	bnez	a5,2740 <.L31>
    2cc0:	0d012583          	lw	a1,208(sp)
    2cc4:	000017b7          	lui	a5,0x1
    2cc8:	f0078793          	addi	a5,a5,-256 # f00 <matrix_test+0x134>
    2ccc:	00f5f5b3          	and	a1,a1,a5
    2cd0:	02c12783          	lw	a5,44(sp)
    2cd4:	000a0613          	mv	a2,s4
    2cd8:	41fa5693          	srai	a3,s4,0x1f
    2cdc:	0007a503          	lw	a0,0(a5)
    2ce0:	2dc070ef          	jal	9fbc <_store_inttype>

00002ce4 <.L32>:
    2ce4:	0c012403          	lw	s0,192(sp)
    2ce8:	00040513          	mv	a0,s0
    2cec:	a25ff06f          	j	2710 <.L21>

00002cf0 <.L92>:
    2cf0:	00600993          	li	s3,6

00002cf4 <.L44>:
    2cf4:	03000693          	li	a3,48
    2cf8:	bed796e3          	bne	a5,a3,28e4 <.L46>
    2cfc:	bd9ff06f          	j	28d4 <.L104>

00002d00 <.L93>:
    2d00:	00900993          	li	s3,9
    2d04:	ff1ff06f          	j	2cf4 <.L44>

00002d08 <_ppfs_init>:
    2d08:	fd010113          	addi	sp,sp,-48
    2d0c:	02912223          	sw	s1,36(sp)
    2d10:	0e000613          	li	a2,224
    2d14:	00058493          	mv	s1,a1
    2d18:	00000593          	li	a1,0
    2d1c:	02112623          	sw	ra,44(sp)
    2d20:	02812423          	sw	s0,40(sp)
    2d24:	03212023          	sw	s2,32(sp)
    2d28:	00050413          	mv	s0,a0
    2d2c:	01312e23          	sw	s3,28(sp)
    2d30:	5e5000ef          	jal	3b14 <__GI_memset>
    2d34:	01842783          	lw	a5,24(s0)
    2d38:	00942023          	sw	s1,0(s0)
    2d3c:	fff78793          	addi	a5,a5,-1
    2d40:	00f42c23          	sw	a5,24(s0)
    2d44:	3c4060ef          	jal	9108 <__GI___curlocale>
    2d48:	000017b7          	lui	a5,0x1
    2d4c:	00f50533          	add	a0,a0,a5
    2d50:	92c54783          	lbu	a5,-1748(a0)
    2d54:	04078a63          	beqz	a5,2da8 <.L2>
    2d58:	00810693          	addi	a3,sp,8
    2d5c:	fff00613          	li	a2,-1
    2d60:	00410593          	addi	a1,sp,4
    2d64:	00000513          	li	a0,0
    2d68:	00012423          	sw	zero,8(sp)
    2d6c:	00912223          	sw	s1,4(sp)
    2d70:	408060ef          	jal	9178 <__GI_mbsrtowcs>
    2d74:	fff00793          	li	a5,-1
    2d78:	02f51863          	bne	a0,a5,2da8 <.L2>
    2d7c:	0001b797          	auipc	a5,0x1b
    2d80:	ffc78793          	addi	a5,a5,-4 # 1dd78 <invalid_mbs.0>
    2d84:	00f42023          	sw	a5,0(s0)

00002d88 <.L4>:
    2d88:	fff00513          	li	a0,-1

00002d8c <.L1>:
    2d8c:	02c12083          	lw	ra,44(sp)
    2d90:	02812403          	lw	s0,40(sp)
    2d94:	02412483          	lw	s1,36(sp)
    2d98:	02012903          	lw	s2,32(sp)
    2d9c:	01c12983          	lw	s3,28(sp)
    2da0:	03010113          	addi	sp,sp,48
    2da4:	00008067          	ret

00002da8 <.L2>:
    2da8:	02840913          	addi	s2,s0,40
    2dac:	04c40713          	addi	a4,s0,76
    2db0:	00090793          	mv	a5,s2
    2db4:	00800693          	li	a3,8

00002db8 <.L5>:
    2db8:	00478793          	addi	a5,a5,4
    2dbc:	fed7ae23          	sw	a3,-4(a5)
    2dc0:	fee79ce3          	bne	a5,a4,2db8 <.L5>
    2dc4:	00048793          	mv	a5,s1
    2dc8:	02500993          	li	s3,37

00002dcc <.L6>:
    2dcc:	0007c703          	lbu	a4,0(a5)
    2dd0:	02071063          	bnez	a4,2df0 <.L11>
    2dd4:	01842783          	lw	a5,24(s0)
    2dd8:	00942023          	sw	s1,0(s0)
    2ddc:	00800713          	li	a4,8

00002de0 <.L12>:
    2de0:	fff78793          	addi	a5,a5,-1
    2de4:	0207de63          	bgez	a5,2e20 <.L14>
    2de8:	00000513          	li	a0,0
    2dec:	fa1ff06f          	j	2d8c <.L1>

00002df0 <.L11>:
    2df0:	0017c683          	lbu	a3,1(a5)
    2df4:	03371263          	bne	a4,s3,2e18 <.L7>
    2df8:	00178793          	addi	a5,a5,1
    2dfc:	01368e63          	beq	a3,s3,2e18 <.L7>
    2e00:	00f42023          	sw	a5,0(s0)
    2e04:	00040513          	mv	a0,s0
    2e08:	224000ef          	jal	302c <_ppfs_parsespec>
    2e0c:	f6054ee3          	bltz	a0,2d88 <.L4>
    2e10:	00042783          	lw	a5,0(s0)
    2e14:	fb9ff06f          	j	2dcc <.L6>

00002e18 <.L7>:
    2e18:	00178793          	addi	a5,a5,1
    2e1c:	fb1ff06f          	j	2dcc <.L6>

00002e20 <.L14>:
    2e20:	00092683          	lw	a3,0(s2)
    2e24:	f6e682e3          	beq	a3,a4,2d88 <.L4>
    2e28:	00490913          	addi	s2,s2,4
    2e2c:	fb5ff06f          	j	2de0 <.L12>

00002e30 <_ppfs_prepargs>:
    2e30:	ff010113          	addi	sp,sp,-16
    2e34:	00912223          	sw	s1,4(sp)
    2e38:	01852483          	lw	s1,24(a0)
    2e3c:	00112623          	sw	ra,12(sp)
    2e40:	00812423          	sw	s0,8(sp)
    2e44:	04b52623          	sw	a1,76(a0)
    2e48:	02905063          	blez	s1,2e68 <.L1>
    2e4c:	00050413          	mv	s0,a0
    2e50:	00952e23          	sw	s1,28(a0)
    2e54:	00052c23          	sw	zero,24(a0)
    2e58:	00052223          	sw	zero,4(a0)
    2e5c:	00052423          	sw	zero,8(a0)
    2e60:	01c000ef          	jal	2e7c <_ppfs_setargs>
    2e64:	00942c23          	sw	s1,24(s0)

00002e68 <.L1>:
    2e68:	00c12083          	lw	ra,12(sp)
    2e6c:	00812403          	lw	s0,8(sp)
    2e70:	00412483          	lw	s1,4(sp)
    2e74:	01010113          	addi	sp,sp,16
    2e78:	00008067          	ret

00002e7c <_ppfs_setargs>:
    2e7c:	01852603          	lw	a2,24(a0)
    2e80:	00852783          	lw	a5,8(a0)
    2e84:	00452683          	lw	a3,4(a0)
    2e88:	05050713          	addi	a4,a0,80
    2e8c:	12061c63          	bnez	a2,2fc4 <.L2>
    2e90:	800005b7          	lui	a1,0x80000
    2e94:	00b79e63          	bne	a5,a1,2eb0 <.L3>
    2e98:	04c52783          	lw	a5,76(a0)
    2e9c:	00478593          	addi	a1,a5,4
    2ea0:	0007a783          	lw	a5,0(a5)
    2ea4:	04b52623          	sw	a1,76(a0)
    2ea8:	04f52823          	sw	a5,80(a0)
    2eac:	00f52423          	sw	a5,8(a0)

00002eb0 <.L3>:
    2eb0:	800007b7          	lui	a5,0x80000
    2eb4:	00f69e63          	bne	a3,a5,2ed0 <.L4>
    2eb8:	04c52783          	lw	a5,76(a0)
    2ebc:	00478693          	addi	a3,a5,4 # 80000004 <_ebss+0x7ffd5534>
    2ec0:	0007a783          	lw	a5,0(a5)
    2ec4:	04d52623          	sw	a3,76(a0)
    2ec8:	04f52823          	sw	a5,80(a0)
    2ecc:	00f52223          	sw	a5,4(a0)

00002ed0 <.L4>:
    2ed0:	01c52f03          	lw	t5,28(a0)
    2ed4:	00001837          	lui	a6,0x1
    2ed8:	000018b7          	lui	a7,0x1
    2edc:	02850593          	addi	a1,a0,40
    2ee0:	00800e13          	li	t3,8
    2ee4:	80080813          	addi	a6,a6,-2048 # 800 <core_list_init+0x28>
    2ee8:	80788893          	addi	a7,a7,-2041 # 807 <core_list_init+0x2f>
    2eec:	00200e93          	li	t4,2
    2ef0:	00700f93          	li	t6,7

00002ef4 <.L5>:
    2ef4:	03e64863          	blt	a2,t5,2f24 <.L17>

00002ef8 <.L18>:
    2ef8:	00852783          	lw	a5,8(a0)
    2efc:	0207d263          	bgez	a5,2f20 <.L1>
    2f00:	40f007b3          	neg	a5,a5
    2f04:	00f52423          	sw	a5,8(a0)
    2f08:	01052783          	lw	a5,16(a0)
    2f0c:	ffe7f793          	andi	a5,a5,-2
    2f10:	0087e793          	ori	a5,a5,8
    2f14:	00f52823          	sw	a5,16(a0)
    2f18:	02000793          	li	a5,32
    2f1c:	00f52a23          	sw	a5,20(a0)

00002f20 <.L1>:
    2f20:	00008067          	ret

00002f24 <.L17>:
    2f24:	0005a683          	lw	a3,0(a1) # 80000000 <_ebss+0x7ffd5530>
    2f28:	00160613          	addi	a2,a2,1
    2f2c:	05c68863          	beq	a3,t3,2f7c <.L6>
    2f30:	04c52783          	lw	a5,76(a0)
    2f34:	04de4863          	blt	t3,a3,2f84 <.L7>
    2f38:	01d68463          	beq	a3,t4,2f40 <.L10>
    2f3c:	00decc63          	blt	t4,a3,2f54 <.L9>

00002f40 <.L10>:
    2f40:	00478693          	addi	a3,a5,4
    2f44:	04d52623          	sw	a3,76(a0)
    2f48:	0007a783          	lw	a5,0(a5)
    2f4c:	00f72023          	sw	a5,0(a4)
    2f50:	0280006f          	j	2f78 <.L16>

00002f54 <.L9>:
    2f54:	fff696e3          	bne	a3,t6,2f40 <.L10>

00002f58 <.L12>:
    2f58:	00778793          	addi	a5,a5,7
    2f5c:	ff87f793          	andi	a5,a5,-8
    2f60:	00878693          	addi	a3,a5,8
    2f64:	04d52623          	sw	a3,76(a0)
    2f68:	0007a303          	lw	t1,0(a5)
    2f6c:	0047a383          	lw	t2,4(a5)
    2f70:	00672023          	sw	t1,0(a4)
    2f74:	00772223          	sw	t2,4(a4)

00002f78 <.L16>:
    2f78:	01070713          	addi	a4,a4,16

00002f7c <.L6>:
    2f7c:	00458593          	addi	a1,a1,4
    2f80:	f75ff06f          	j	2ef4 <.L5>

00002f84 <.L7>:
    2f84:	80068313          	addi	t1,a3,-2048
    2f88:	fc0308e3          	beqz	t1,2f58 <.L12>
    2f8c:	fad85ae3          	bge	a6,a3,2f40 <.L10>
    2f90:	fb1698e3          	bne	a3,a7,2f40 <.L10>
    2f94:	00478693          	addi	a3,a5,4
    2f98:	04d52623          	sw	a3,76(a0)
    2f9c:	0007a783          	lw	a5,0(a5)
    2fa0:	0007a283          	lw	t0,0(a5)
    2fa4:	0047a303          	lw	t1,4(a5)
    2fa8:	0087a683          	lw	a3,8(a5)
    2fac:	00c7a783          	lw	a5,12(a5)
    2fb0:	00572023          	sw	t0,0(a4)
    2fb4:	00672223          	sw	t1,4(a4)
    2fb8:	00d72423          	sw	a3,8(a4)
    2fbc:	00f72623          	sw	a5,12(a4)
    2fc0:	fb9ff06f          	j	2f78 <.L16>

00002fc4 <.L2>:
    2fc4:	80000637          	lui	a2,0x80000
    2fc8:	00c79c63          	bne	a5,a2,2fe0 <.L19>
    2fcc:	02454783          	lbu	a5,36(a0)
    2fd0:	00479793          	slli	a5,a5,0x4
    2fd4:	00f707b3          	add	a5,a4,a5
    2fd8:	ff07a783          	lw	a5,-16(a5)
    2fdc:	00f52423          	sw	a5,8(a0)

00002fe0 <.L19>:
    2fe0:	800007b7          	lui	a5,0x80000
    2fe4:	f0f69ae3          	bne	a3,a5,2ef8 <.L18>
    2fe8:	02554783          	lbu	a5,37(a0)
    2fec:	00479793          	slli	a5,a5,0x4
    2ff0:	00f70733          	add	a4,a4,a5
    2ff4:	ff072783          	lw	a5,-16(a4)
    2ff8:	00f52223          	sw	a5,4(a0)
    2ffc:	efdff06f          	j	2ef8 <.L18>

00003000 <_promoted_size>:
    3000:	9c018793          	addi	a5,gp,-1600 # 146e0 <type_sizes>
    3004:	9a818713          	addi	a4,gp,-1624 # 146c8 <type_codes>

00003008 <.L3>:
    3008:	ffe79683          	lh	a3,-2(a5) # 7ffffffe <_ebss+0x7ffd552e>
    300c:	ffe78793          	addi	a5,a5,-2
    3010:	00a68463          	beq	a3,a0,3018 <.L2>
    3014:	fee79ae3          	bne	a5,a4,3008 <.L3>

00003018 <.L2>:
    3018:	40e787b3          	sub	a5,a5,a4
    301c:	4017d793          	srai	a5,a5,0x1
    3020:	00f70733          	add	a4,a4,a5
    3024:	01874503          	lbu	a0,24(a4)
    3028:	00008067          	ret

0000302c <_ppfs_parsespec>:
    302c:	f7010113          	addi	sp,sp,-144
    3030:	00800793          	li	a5,8
    3034:	00f12a23          	sw	a5,20(sp)
    3038:	00f12c23          	sw	a5,24(sp)
    303c:	01052783          	lw	a5,16(a0)
    3040:	08812423          	sw	s0,136(sp)
    3044:	08912223          	sw	s1,132(sp)
    3048:	07312e23          	sw	s3,124(sp)
    304c:	08112623          	sw	ra,140(sp)
    3050:	09212023          	sw	s2,128(sp)
    3054:	07412c23          	sw	s4,120(sp)
    3058:	07512a23          	sw	s5,116(sp)
    305c:	07612823          	sw	s6,112(sp)
    3060:	07712623          	sw	s7,108(sp)
    3064:	07812423          	sw	s8,104(sp)
    3068:	07912223          	sw	s9,100(sp)
    306c:	07a12023          	sw	s10,96(sp)
    3070:	05b12e23          	sw	s11,92(sp)
    3074:	00012423          	sw	zero,8(sp)
    3078:	00012623          	sw	zero,12(sp)
    307c:	0807f793          	andi	a5,a5,128
    3080:	01852983          	lw	s3,24(a0)
    3084:	00052483          	lw	s1,0(a0)
    3088:	00050413          	mv	s0,a0
    308c:	0c079e63          	bnez	a5,3168 <.L6>
    3090:	00000a13          	li	s4,0

00003094 <.L12>:
    3094:	755040ef          	jal	7fe8 <__GI___ctype_b_loc>
    3098:	0cccd837          	lui	a6,0xcccd
    309c:	0cccd8b7          	lui	a7,0xcccd
    30a0:	800005b7          	lui	a1,0x80000
    30a4:	00052f03          	lw	t5,0(a0)
    30a8:	00000613          	li	a2,0
    30ac:	00000513          	li	a0,0
    30b0:	02a00313          	li	t1,42
    30b4:	ccb80813          	addi	a6,a6,-821 # ccccccb <_ebss+0xcca21fb>
    30b8:	00a00f93          	li	t6,10
    30bc:	ccc88893          	addi	a7,a7,-820 # ccccccc <_ebss+0xcca21fc>
    30c0:	fff58593          	addi	a1,a1,-1 # 7fffffff <_ebss+0x7ffd552f>
    30c4:	03700293          	li	t0,55
    30c8:	02500e13          	li	t3,37
    30cc:	02e00393          	li	t2,46
    30d0:	02400e93          	li	t4,36
    30d4:	03000a93          	li	s5,48
    30d8:	06d00b13          	li	s6,109

000030dc <.L7>:
    30dc:	0004c783          	lbu	a5,0(s1)
    30e0:	00048713          	mv	a4,s1
    30e4:	00679c63          	bne	a5,t1,30fc <.L13>
    30e8:	05010713          	addi	a4,sp,80
    30ec:	00261793          	slli	a5,a2,0x2
    30f0:	40f707b3          	sub	a5,a4,a5
    30f4:	fc07a223          	sw	zero,-60(a5)
    30f8:	00148713          	addi	a4,s1,1

000030fc <.L13>:
    30fc:	00000793          	li	a5,0

00003100 <.L14>:
    3100:	00074683          	lbu	a3,0(a4)
    3104:	00169913          	slli	s2,a3,0x1
    3108:	012f0933          	add	s2,t5,s2
    310c:	00095903          	lhu	s2,0(s2)
    3110:	00897913          	andi	s2,s2,8
    3114:	0c091c63          	bnez	s2,31ec <.L17>
    3118:	fff4c903          	lbu	s2,-1(s1)
    311c:	11c91063          	bne	s2,t3,321c <.L18>
    3120:	0fd69a63          	bne	a3,t4,3214 <.L19>
    3124:	42f05463          	blez	a5,354c <.L20>
    3128:	00170493          	addi	s1,a4,1
    312c:	06098063          	beqz	s3,318c <.L21>
    3130:	00f12823          	sw	a5,16(sp)
    3134:	00f9d463          	bge	s3,a5,313c <.L23>
    3138:	00078993          	mv	s3,a5

0000313c <.L23>:
    313c:	00048713          	mv	a4,s1

00003140 <.L26>:
    3140:	00074903          	lbu	s2,0(a4)
    3144:	00100793          	li	a5,1
    3148:	0001b497          	auipc	s1,0x1b
    314c:	c6c48493          	addi	s1,s1,-916 # 1ddb4 <spec_flags.5>

00003150 <.L27>:
    3150:	0004c683          	lbu	a3,0(s1)
    3154:	00148493          	addi	s1,s1,1
    3158:	11269c63          	bne	a3,s2,3270 <.L25>
    315c:	00170713          	addi	a4,a4,1
    3160:	00fa6a33          	or	s4,s4,a5
    3164:	fddff06f          	j	3140 <.L26>

00003168 <.L6>:
    3168:	ffc48793          	addi	a5,s1,-4
    316c:	03010693          	addi	a3,sp,48
    3170:	07c48493          	addi	s1,s1,124

00003174 <.L11>:
    3174:	0007a703          	lw	a4,0(a5)
    3178:	0ff77613          	zext.b	a2,a4
    317c:	00c68023          	sb	a2,0(a3)
    3180:	0007a583          	lw	a1,0(a5)
    3184:	0ff77713          	zext.b	a4,a4
    3188:	04e58263          	beq	a1,a4,31cc <.L8>

0000318c <.L21>:
    318c:	fff00513          	li	a0,-1

00003190 <.L5>:
    3190:	08c12083          	lw	ra,140(sp)
    3194:	08812403          	lw	s0,136(sp)
    3198:	08412483          	lw	s1,132(sp)
    319c:	08012903          	lw	s2,128(sp)
    31a0:	07c12983          	lw	s3,124(sp)
    31a4:	07812a03          	lw	s4,120(sp)
    31a8:	07412a83          	lw	s5,116(sp)
    31ac:	07012b03          	lw	s6,112(sp)
    31b0:	06c12b83          	lw	s7,108(sp)
    31b4:	06812c03          	lw	s8,104(sp)
    31b8:	06412c83          	lw	s9,100(sp)
    31bc:	06012d03          	lw	s10,96(sp)
    31c0:	05c12d83          	lw	s11,92(sp)
    31c4:	09010113          	addi	sp,sp,144
    31c8:	00008067          	ret

000031cc <.L8>:
    31cc:	00060863          	beqz	a2,31dc <.L10>
    31d0:	00478793          	addi	a5,a5,4
    31d4:	00168693          	addi	a3,a3,1
    31d8:	f8979ee3          	bne	a5,s1,3174 <.L11>

000031dc <.L10>:
    31dc:	040107a3          	sb	zero,79(sp)
    31e0:	08000a13          	li	s4,128
    31e4:	03110493          	addi	s1,sp,49
    31e8:	eadff06f          	j	3094 <.L12>

000031ec <.L17>:
    31ec:	00f85663          	bge	a6,a5,31f8 <.L15>
    31f0:	01179e63          	bne	a5,a7,320c <.L59>
    31f4:	00d2ec63          	bltu	t0,a3,320c <.L59>

000031f8 <.L15>:
    31f8:	03f787b3          	mul	a5,a5,t6
    31fc:	fd068693          	addi	a3,a3,-48
    3200:	00f687b3          	add	a5,a3,a5

00003204 <.L16>:
    3204:	00170713          	addi	a4,a4,1
    3208:	ef9ff06f          	j	3100 <.L14>

0000320c <.L59>:
    320c:	00058793          	mv	a5,a1
    3210:	ff5ff06f          	j	3204 <.L16>

00003214 <.L19>:
    3214:	33305e63          	blez	s3,3550 <.L24>
    3218:	f7669ae3          	bne	a3,s6,318c <.L21>

0000321c <.L18>:
    321c:	0004c683          	lbu	a3,0(s1)
    3220:	00070913          	mv	s2,a4
    3224:	02669663          	bne	a3,t1,3250 <.L29>
    3228:	06098a63          	beqz	s3,329c <.L30>
    322c:	00170913          	addi	s2,a4,1
    3230:	00074703          	lbu	a4,0(a4)
    3234:	f5d71ce3          	bne	a4,t4,318c <.L21>
    3238:	f4f05ae3          	blez	a5,318c <.L21>
    323c:	00261713          	slli	a4,a2,0x2
    3240:	05010693          	addi	a3,sp,80
    3244:	40e68733          	sub	a4,a3,a4
    3248:	faf72c23          	sw	a5,-72(a4)

0000324c <.L85>:
    324c:	800007b7          	lui	a5,0x80000

00003250 <.L29>:
    3250:	00094483          	lbu	s1,0(s2)
    3254:	04061e63          	bnez	a2,32b0 <.L31>
    3258:	04749863          	bne	s1,t2,32a8 <.L63>
    325c:	00190713          	addi	a4,s2,1
    3260:	00078513          	mv	a0,a5
    3264:	fff00613          	li	a2,-1

00003268 <.L28>:
    3268:	00070493          	mv	s1,a4
    326c:	e71ff06f          	j	30dc <.L7>

00003270 <.L25>:
    3270:	0004c683          	lbu	a3,0(s1)
    3274:	00179793          	slli	a5,a5,0x1
    3278:	ec069ce3          	bnez	a3,3150 <.L27>
    327c:	401a5793          	srai	a5,s4,0x1
    3280:	0057f793          	andi	a5,a5,5
    3284:	fff7c793          	not	a5,a5
    3288:	00fa7a33          	and	s4,s4,a5
    328c:	fff74783          	lbu	a5,-1(a4)
    3290:	fdc79ce3          	bne	a5,t3,3268 <.L28>
    3294:	00000793          	li	a5,0
    3298:	f85ff06f          	j	321c <.L18>

0000329c <.L30>:
    329c:	00148913          	addi	s2,s1,1
    32a0:	fb2706e3          	beq	a4,s2,324c <.L85>
    32a4:	ee9ff06f          	j	318c <.L21>

000032a8 <.L63>:
    32a8:	00078513          	mv	a0,a5
    32ac:	fff00793          	li	a5,-1

000032b0 <.L31>:
    32b0:	9cc18713          	addi	a4,gp,-1588 # 146ec <qual_chars.4>
    32b4:	00070693          	mv	a3,a4

000032b8 <.L34>:
    32b8:	00074603          	lbu	a2,0(a4)
    32bc:	1a961c63          	bne	a2,s1,3474 <.L32>
    32c0:	00190913          	addi	s2,s2,1

000032c4 <.L33>:
    32c4:	40d706b3          	sub	a3,a4,a3
    32c8:	00100593          	li	a1,1
    32cc:	00094603          	lbu	a2,0(s2)
    32d0:	00d5ca63          	blt	a1,a3,32e4 <.L35>
    32d4:	00074683          	lbu	a3,0(a4)
    32d8:	00c69663          	bne	a3,a2,32e4 <.L35>
    32dc:	00970713          	addi	a4,a4,9
    32e0:	00190913          	addi	s2,s2,1

000032e4 <.L35>:
    32e4:	00974683          	lbu	a3,9(a4)
    32e8:	00094603          	lbu	a2,0(s2)
    32ec:	00869693          	slli	a3,a3,0x8
    32f0:	e8060ee3          	beqz	a2,318c <.L21>
    32f4:	0001b717          	auipc	a4,0x1b
    32f8:	aa870713          	addi	a4,a4,-1368 # 1dd9c <spec_chars.3>
    32fc:	00070813          	mv	a6,a4

00003300 <.L40>:
    3300:	00074583          	lbu	a1,0(a4)
    3304:	18c59063          	bne	a1,a2,3484 <.L36>
    3308:	41070733          	sub	a4,a4,a6
    330c:	01100613          	li	a2,17
    3310:	00e65863          	bge	a2,a4,3320 <.L37>
    3314:	4006f613          	andi	a2,a3,1024
    3318:	00060463          	beqz	a2,3320 <.L37>
    331c:	ffe70713          	addi	a4,a4,-2

00003320 <.L37>:
    3320:	9e018593          	addi	a1,gp,-1568 # 14700 <spec_ranges.2>
    3324:	02e42023          	sw	a4,32(s0)
    3328:	00058813          	mv	a6,a1

0000332c <.L38>:
    332c:	00058613          	mv	a2,a1
    3330:	00064883          	lbu	a7,0(a2) # 80000000 <_ebss+0x7ffd5530>
    3334:	00158593          	addi	a1,a1,1
    3338:	fee8cae3          	blt	a7,a4,332c <.L38>
    333c:	41060633          	sub	a2,a2,a6
    3340:	9a818713          	addi	a4,gp,-1624 # 146c8 <type_codes>
    3344:	00161613          	slli	a2,a2,0x1
    3348:	00c70633          	add	a2,a4,a2
    334c:	04461703          	lh	a4,68(a2)
    3350:	05461603          	lh	a2,84(a2)
    3354:	00d76733          	or	a4,a4,a3
    3358:	00c77733          	and	a4,a4,a2
    335c:	00e12e23          	sw	a4,28(sp)
    3360:	0001b717          	auipc	a4,0x1b
    3364:	a3c70713          	addi	a4,a4,-1476 # 1dd9c <spec_chars.3>

00003368 <.L39>:
    3368:	00094603          	lbu	a2,0(s2)
    336c:	00f42223          	sw	a5,4(s0)
    3370:	00a42423          	sw	a0,8(s0)
    3374:	00c42623          	sw	a2,12(s0)
    3378:	004a7793          	andi	a5,s4,4
    337c:	02000613          	li	a2,32
    3380:	00078463          	beqz	a5,3388 <.L41>
    3384:	03000613          	li	a2,48

00003388 <.L41>:
    3388:	000017b7          	lui	a5,0x1
    338c:	f0078793          	addi	a5,a5,-256 # f00 <matrix_test+0x134>
    3390:	00f6f6b3          	and	a3,a3,a5
    3394:	ffba7a13          	andi	s4,s4,-5
    3398:	00100793          	li	a5,1
    339c:	00da6a33          	or	s4,s4,a3
    33a0:	00c42a23          	sw	a2,20(s0)
    33a4:	01442823          	sw	s4,16(s0)
    33a8:	00f42e23          	sw	a5,28(s0)
    33ac:	00074783          	lbu	a5,0(a4)
    33b0:	00079e63          	bnez	a5,33cc <.L44>
    33b4:	00094703          	lbu	a4,0(s2)
    33b8:	06d00793          	li	a5,109
    33bc:	0cf71c63          	bne	a4,a5,3494 <.L43>
    33c0:	01400793          	li	a5,20
    33c4:	02f42023          	sw	a5,32(s0)
    33c8:	00042e23          	sw	zero,28(s0)

000033cc <.L44>:
    33cc:	15305463          	blez	s3,3514 <.L47>
    33d0:	01410b93          	addi	s7,sp,20
    33d4:	00810b13          	addi	s6,sp,8
    33d8:	00000a13          	li	s4,0
    33dc:	00200d13          	li	s10,2
    33e0:	00900d93          	li	s11,9
    33e4:	00800c93          	li	s9,8

000033e8 <.L53>:
    33e8:	114d4e63          	blt	s10,s4,3504 <.L48>
    33ec:	000b2783          	lw	a5,0(s6)
    33f0:	01440733          	add	a4,s0,s4
    33f4:	02f70223          	sb	a5,36(a4)
    33f8:	0ff7f793          	zext.b	a5,a5

000033fc <.L49>:
    33fc:	00f9d663          	bge	s3,a5,3408 <.L50>
    3400:	d8fdc6e3          	blt	s11,a5,318c <.L21>
    3404:	00078993          	mv	s3,a5

00003408 <.L50>:
    3408:	000baa83          	lw	s5,0(s7)
    340c:	039a8863          	beq	s5,s9,343c <.L51>
    3410:	00279793          	slli	a5,a5,0x2
    3414:	00f404b3          	add	s1,s0,a5
    3418:	0244a503          	lw	a0,36(s1)
    341c:	01950e63          	beq	a0,s9,3438 <.L52>
    3420:	01550c63          	beq	a0,s5,3438 <.L52>
    3424:	bddff0ef          	jal	3000 <_promoted_size>
    3428:	00050c13          	mv	s8,a0
    342c:	000a8513          	mv	a0,s5
    3430:	bd1ff0ef          	jal	3000 <_promoted_size>
    3434:	01854463          	blt	a0,s8,343c <.L51>

00003438 <.L52>:
    3438:	0354a223          	sw	s5,36(s1)

0000343c <.L51>:
    343c:	01c42783          	lw	a5,28(s0)
    3440:	001a0713          	addi	a4,s4,1 # fffff001 <_ebss+0xfffd4531>
    3444:	004b8b93          	addi	s7,s7,4
    3448:	004b0b13          	addi	s6,s6,4
    344c:	0b47d863          	bge	a5,s4,34fc <.L65>

00003450 <.L54>:
    3450:	01042783          	lw	a5,16(s0)
    3454:	01342c23          	sw	s3,24(s0)
    3458:	0807f793          	andi	a5,a5,128
    345c:	0c079c63          	bnez	a5,3534 <.L55>
    3460:	00190793          	addi	a5,s2,1

00003464 <.L56>:
    3464:	01c42503          	lw	a0,28(s0)
    3468:	00f42023          	sw	a5,0(s0)
    346c:	00250513          	addi	a0,a0,2
    3470:	d21ff06f          	j	3190 <.L5>

00003474 <.L32>:
    3474:	00174603          	lbu	a2,1(a4)
    3478:	00170713          	addi	a4,a4,1
    347c:	e2061ee3          	bnez	a2,32b8 <.L34>
    3480:	e45ff06f          	j	32c4 <.L33>

00003484 <.L36>:
    3484:	00174583          	lbu	a1,1(a4)
    3488:	00170713          	addi	a4,a4,1
    348c:	e6059ae3          	bnez	a1,3300 <.L40>
    3490:	ed9ff06f          	j	3368 <.L39>

00003494 <.L43>:
    3494:	01500793          	li	a5,21
    3498:	02f42023          	sw	a5,32(s0)
    349c:	00094603          	lbu	a2,0(s2)
    34a0:	0001b717          	auipc	a4,0x1b
    34a4:	d3c72703          	lw	a4,-708(a4) # 1e1dc <_custom_printf_spec>
    34a8:	00a70693          	addi	a3,a4,10
    34ac:	00070793          	mv	a5,a4

000034b0 <.L46>:
    34b0:	0007c583          	lbu	a1,0(a5)
    34b4:	02c59e63          	bne	a1,a2,34f0 <.L45>
    34b8:	40e787b3          	sub	a5,a5,a4
    34bc:	00279793          	slli	a5,a5,0x2
    34c0:	00027717          	auipc	a4,0x27
    34c4:	a6c70713          	addi	a4,a4,-1428 # 29f2c <_custom_printf_arginfo>
    34c8:	00f707b3          	add	a5,a4,a5
    34cc:	0007a783          	lw	a5,0(a5)
    34d0:	01c10613          	addi	a2,sp,28
    34d4:	00500593          	li	a1,5
    34d8:	00440513          	addi	a0,s0,4
    34dc:	000780e7          	jalr	a5
    34e0:	00a42e23          	sw	a0,28(s0)
    34e4:	00500793          	li	a5,5
    34e8:	eea7d2e3          	bge	a5,a0,33cc <.L44>
    34ec:	ca1ff06f          	j	318c <.L21>

000034f0 <.L45>:
    34f0:	00178793          	addi	a5,a5,1
    34f4:	fad79ee3          	bne	a5,a3,34b0 <.L46>
    34f8:	c95ff06f          	j	318c <.L21>

000034fc <.L65>:
    34fc:	00070a13          	mv	s4,a4
    3500:	ee9ff06f          	j	33e8 <.L53>

00003504 <.L48>:
    3504:	01012703          	lw	a4,16(sp)
    3508:	ffea0793          	addi	a5,s4,-2
    350c:	00e787b3          	add	a5,a5,a4
    3510:	eedff06f          	j	33fc <.L49>

00003514 <.L47>:
    3514:	01c42603          	lw	a2,28(s0)
    3518:	00100793          	li	a5,1
    351c:	02f40323          	sb	a5,38(s0)
    3520:	00261613          	slli	a2,a2,0x2
    3524:	01c10593          	addi	a1,sp,28
    3528:	02840513          	addi	a0,s0,40
    352c:	340000ef          	jal	386c <__GI_memcpy>
    3530:	f21ff06f          	j	3450 <.L54>

00003534 <.L55>:
    3534:	03010793          	addi	a5,sp,48
    3538:	40f90933          	sub	s2,s2,a5
    353c:	00042783          	lw	a5,0(s0)
    3540:	00291913          	slli	s2,s2,0x2
    3544:	012787b3          	add	a5,a5,s2
    3548:	f1dff06f          	j	3464 <.L56>

0000354c <.L20>:
    354c:	c53040e3          	bgtz	s3,318c <.L21>

00003550 <.L24>:
    3550:	0004c683          	lbu	a3,0(s1)
    3554:	00000993          	li	s3,0
    3558:	bee4f2e3          	bgeu	s1,a4,313c <.L23>
    355c:	cd5690e3          	bne	a3,s5,321c <.L18>
    3560:	bddff06f          	j	313c <.L23>

00003564 <putchar>:
    3564:	fd010113          	addi	sp,sp,-48
    3568:	00011797          	auipc	a5,0x11
    356c:	ea87a783          	lw	a5,-344(a5) # 14410 <_GLOBAL_OFFSET_TABLE_+0x8>
    3570:	02912223          	sw	s1,36(sp)
    3574:	0007a483          	lw	s1,0(a5)
    3578:	02812423          	sw	s0,40(sp)
    357c:	02112623          	sw	ra,44(sp)
    3580:	0384a783          	lw	a5,56(s1)
    3584:	03212023          	sw	s2,32(sp)
    3588:	01312e23          	sw	s3,28(sp)
    358c:	00050413          	mv	s0,a0
    3590:	06078063          	beqz	a5,35f0 <.L2>
    3594:	0104a783          	lw	a5,16(s1)
    3598:	01c4a703          	lw	a4,28(s1)
    359c:	02e7fa63          	bgeu	a5,a4,35d0 <.L3>
    35a0:	00178713          	addi	a4,a5,1
    35a4:	00e4a823          	sw	a4,16(s1)
    35a8:	00a78023          	sb	a0,0(a5)
    35ac:	0ff57413          	zext.b	s0,a0

000035b0 <.L1>:
    35b0:	02c12083          	lw	ra,44(sp)
    35b4:	00040513          	mv	a0,s0
    35b8:	02812403          	lw	s0,40(sp)
    35bc:	02412483          	lw	s1,36(sp)
    35c0:	02012903          	lw	s2,32(sp)
    35c4:	01c12983          	lw	s3,28(sp)
    35c8:	03010113          	addi	sp,sp,48
    35cc:	00008067          	ret

000035d0 <.L3>:
    35d0:	02812403          	lw	s0,40(sp)
    35d4:	02c12083          	lw	ra,44(sp)
    35d8:	02012903          	lw	s2,32(sp)
    35dc:	01c12983          	lw	s3,28(sp)
    35e0:	00048593          	mv	a1,s1
    35e4:	02412483          	lw	s1,36(sp)
    35e8:	03010113          	addi	sp,sp,48
    35ec:	0800006f          	j	366c <__GI___fputc_unlocked>

000035f0 <.L2>:
    35f0:	03c48913          	addi	s2,s1,60
    35f4:	00010993          	mv	s3,sp
    35f8:	00090613          	mv	a2,s2
    35fc:	00011597          	auipc	a1,0x11
    3600:	e5c5a583          	lw	a1,-420(a1) # 14458 <_GLOBAL_OFFSET_TABLE_+0x50>
    3604:	00098513          	mv	a0,s3
    3608:	00011317          	auipc	t1,0x11
    360c:	e8832303          	lw	t1,-376(t1) # 14490 <_GLOBAL_OFFSET_TABLE_+0x88>
    3610:	000300e7          	jalr	t1
    3614:	00090513          	mv	a0,s2
    3618:	00011317          	auipc	t1,0x11
    361c:	e0032303          	lw	t1,-512(t1) # 14418 <_GLOBAL_OFFSET_TABLE_+0x10>
    3620:	000300e7          	jalr	t1
    3624:	0104a783          	lw	a5,16(s1)
    3628:	01c4a703          	lw	a4,28(s1)
    362c:	02e7f663          	bgeu	a5,a4,3658 <.L5>
    3630:	00178713          	addi	a4,a5,1
    3634:	00e4a823          	sw	a4,16(s1)
    3638:	00878023          	sb	s0,0(a5)
    363c:	0ff47413          	zext.b	s0,s0

00003640 <.L6>:
    3640:	00100593          	li	a1,1
    3644:	00098513          	mv	a0,s3
    3648:	00011317          	auipc	t1,0x11
    364c:	e0032303          	lw	t1,-512(t1) # 14448 <_GLOBAL_OFFSET_TABLE_+0x40>
    3650:	000300e7          	jalr	t1
    3654:	f5dff06f          	j	35b0 <.L1>

00003658 <.L5>:
    3658:	00040513          	mv	a0,s0
    365c:	00048593          	mv	a1,s1
    3660:	00c000ef          	jal	366c <__GI___fputc_unlocked>
    3664:	00050413          	mv	s0,a0
    3668:	fd9ff06f          	j	3640 <.L6>

0000366c <__GI___fputc_unlocked>:
    366c:	0105a783          	lw	a5,16(a1)
    3670:	01c5a703          	lw	a4,28(a1)
    3674:	fe010113          	addi	sp,sp,-32
    3678:	00812c23          	sw	s0,24(sp)
    367c:	00912a23          	sw	s1,20(sp)
    3680:	00112e23          	sw	ra,28(sp)
    3684:	00050493          	mv	s1,a0
    3688:	00058413          	mv	s0,a1
    368c:	02e7f463          	bgeu	a5,a4,36b4 <.L2>
    3690:	00178713          	addi	a4,a5,1
    3694:	00e5a823          	sw	a4,16(a1)
    3698:	00a78023          	sb	a0,0(a5)

0000369c <.L5>:
    369c:	0ff4f513          	zext.b	a0,s1

000036a0 <.L1>:
    36a0:	01c12083          	lw	ra,28(sp)
    36a4:	01812403          	lw	s0,24(sp)
    36a8:	01412483          	lw	s1,20(sp)
    36ac:	02010113          	addi	sp,sp,32
    36b0:	00008067          	ret

000036b4 <.L2>:
    36b4:	0005d783          	lhu	a5,0(a1)
    36b8:	0c000713          	li	a4,192
    36bc:	0c07f793          	andi	a5,a5,192
    36c0:	06e79463          	bne	a5,a4,3728 <.L4>

000036c4 <.L7>:
    36c4:	00442703          	lw	a4,4(s0)
    36c8:	ffd00793          	li	a5,-3
    36cc:	fcf708e3          	beq	a4,a5,369c <.L5>
    36d0:	00c42783          	lw	a5,12(s0)
    36d4:	00842703          	lw	a4,8(s0)
    36d8:	06e78c63          	beq	a5,a4,3750 <.L9>
    36dc:	01042703          	lw	a4,16(s0)
    36e0:	06e78063          	beq	a5,a4,3740 <.L10>

000036e4 <.L14>:
    36e4:	01042783          	lw	a5,16(s0)
    36e8:	00178713          	addi	a4,a5,1
    36ec:	00e42823          	sw	a4,16(s0)
    36f0:	0ff4f713          	zext.b	a4,s1
    36f4:	00e78023          	sb	a4,0(a5)
    36f8:	00045783          	lhu	a5,0(s0)
    36fc:	1007f793          	andi	a5,a5,256
    3700:	f8078ee3          	beqz	a5,369c <.L5>
    3704:	00a00793          	li	a5,10
    3708:	f8f71ae3          	bne	a4,a5,369c <.L5>
    370c:	00040513          	mv	a0,s0
    3710:	cddfe0ef          	jal	23ec <__stdio_wcommit>
    3714:	f80504e3          	beqz	a0,369c <.L5>
    3718:	01042783          	lw	a5,16(s0)
    371c:	fff78793          	addi	a5,a5,-1
    3720:	00f42823          	sw	a5,16(s0)
    3724:	0140006f          	j	3738 <.L8>

00003728 <.L4>:
    3728:	08000593          	li	a1,128
    372c:	00040513          	mv	a0,s0
    3730:	71c060ef          	jal	9e4c <__stdio_trans2w_o>
    3734:	f80508e3          	beqz	a0,36c4 <.L7>

00003738 <.L8>:
    3738:	fff00513          	li	a0,-1
    373c:	f65ff06f          	j	36a0 <.L1>

00003740 <.L10>:
    3740:	00040513          	mv	a0,s0
    3744:	ca9fe0ef          	jal	23ec <__stdio_wcommit>
    3748:	f8050ee3          	beqz	a0,36e4 <.L14>
    374c:	fedff06f          	j	3738 <.L8>

00003750 <.L9>:
    3750:	00100613          	li	a2,1
    3754:	00f10593          	addi	a1,sp,15
    3758:	00040513          	mv	a0,s0
    375c:	009107a3          	sb	s1,15(sp)
    3760:	118060ef          	jal	9878 <__stdio_WRITE>
    3764:	f2051ce3          	bnez	a0,369c <.L5>
    3768:	fd1ff06f          	j	3738 <.L8>

0000376c <__GI_fputs_unlocked>:
    376c:	fe010113          	addi	sp,sp,-32
    3770:	00812c23          	sw	s0,24(sp)
    3774:	00912a23          	sw	s1,20(sp)
    3778:	00112e23          	sw	ra,28(sp)
    377c:	00050493          	mv	s1,a0
    3780:	00b12623          	sw	a1,12(sp)
    3784:	434000ef          	jal	3bb8 <__GI_strlen>
    3788:	00c12683          	lw	a3,12(sp)
    378c:	00050413          	mv	s0,a0
    3790:	00050613          	mv	a2,a0
    3794:	00100593          	li	a1,1
    3798:	00048513          	mv	a0,s1
    379c:	020000ef          	jal	37bc <__GI_fwrite_unlocked>
    37a0:	00850463          	beq	a0,s0,37a8 <.L1>
    37a4:	fff00513          	li	a0,-1

000037a8 <.L1>:
    37a8:	01c12083          	lw	ra,28(sp)
    37ac:	01812403          	lw	s0,24(sp)
    37b0:	01412483          	lw	s1,20(sp)
    37b4:	02010113          	addi	sp,sp,32
    37b8:	00008067          	ret

000037bc <__GI_fwrite_unlocked>:
    37bc:	0006d783          	lhu	a5,0(a3)
    37c0:	fe010113          	addi	sp,sp,-32
    37c4:	00812c23          	sw	s0,24(sp)
    37c8:	00912a23          	sw	s1,20(sp)
    37cc:	01212823          	sw	s2,16(sp)
    37d0:	01312623          	sw	s3,12(sp)
    37d4:	00112e23          	sw	ra,28(sp)
    37d8:	0c07f793          	andi	a5,a5,192
    37dc:	0c000713          	li	a4,192
    37e0:	00050993          	mv	s3,a0
    37e4:	00058493          	mv	s1,a1
    37e8:	00060913          	mv	s2,a2
    37ec:	00068413          	mv	s0,a3
    37f0:	02e79463          	bne	a5,a4,3818 <.L2>

000037f4 <.L5>:
    37f4:	02049c63          	bnez	s1,382c <.L3>

000037f8 <.L10>:
    37f8:	00000513          	li	a0,0

000037fc <.L1>:
    37fc:	01c12083          	lw	ra,28(sp)
    3800:	01812403          	lw	s0,24(sp)
    3804:	01412483          	lw	s1,20(sp)
    3808:	01012903          	lw	s2,16(sp)
    380c:	00c12983          	lw	s3,12(sp)
    3810:	02010113          	addi	sp,sp,32
    3814:	00008067          	ret

00003818 <.L2>:
    3818:	08000593          	li	a1,128
    381c:	00068513          	mv	a0,a3
    3820:	62c060ef          	jal	9e4c <__stdio_trans2w_o>
    3824:	fc0508e3          	beqz	a0,37f4 <.L5>
    3828:	fd1ff06f          	j	37f8 <.L10>

0000382c <.L3>:
    382c:	fc0906e3          	beqz	s2,37f8 <.L10>
    3830:	0324b7b3          	mulhu	a5,s1,s2
    3834:	00079e63          	bnez	a5,3850 <.L9>
    3838:	032485b3          	mul	a1,s1,s2
    383c:	00040613          	mv	a2,s0
    3840:	00098513          	mv	a0,s3
    3844:	4b8060ef          	jal	9cfc <__stdio_fwrite>
    3848:	02955533          	divu	a0,a0,s1
    384c:	fb1ff06f          	j	37fc <.L1>

00003850 <.L9>:
    3850:	00045783          	lhu	a5,0(s0)
    3854:	0087e793          	ori	a5,a5,8
    3858:	00f41023          	sh	a5,0(s0)
    385c:	4f8010ef          	jal	4d54 <__errno_location>
    3860:	01600793          	li	a5,22
    3864:	00f52023          	sw	a5,0(a0)
    3868:	f91ff06f          	j	37f8 <.L10>

0000386c <__GI_memcpy>:
    386c:	00f00713          	li	a4,15
    3870:	00050693          	mv	a3,a0
    3874:	00058793          	mv	a5,a1
    3878:	16c77a63          	bgeu	a4,a2,39ec <.L2>
    387c:	40a007b3          	neg	a5,a0
    3880:	0037f793          	andi	a5,a5,3
    3884:	40f60633          	sub	a2,a2,a5
    3888:	00000713          	li	a4,0

0000388c <.L3>:
    388c:	04e79463          	bne	a5,a4,38d4 <.L4>
    3890:	00f585b3          	add	a1,a1,a5
    3894:	00f508b3          	add	a7,a0,a5
    3898:	0035fe13          	andi	t3,a1,3
    389c:	00088793          	mv	a5,a7
    38a0:	00265713          	srli	a4,a2,0x2
    38a4:	140e1a63          	bnez	t3,39f8 <.L5>
    38a8:	00777693          	andi	a3,a4,7
    38ac:	fff68693          	addi	a3,a3,-1
    38b0:	00600313          	li	t1,6
    38b4:	0005a803          	lw	a6,0(a1)
    38b8:	0ed36863          	bltu	t1,a3,39a8 <.L6>
    38bc:	a0c18313          	addi	t1,gp,-1524 # 1472c <.L8>
    38c0:	00269693          	slli	a3,a3,0x2
    38c4:	006686b3          	add	a3,a3,t1
    38c8:	0006a683          	lw	a3,0(a3)
    38cc:	006686b3          	add	a3,a3,t1
    38d0:	00068067          	jr	a3

000038d4 <.L4>:
    38d4:	00e586b3          	add	a3,a1,a4
    38d8:	0006c803          	lbu	a6,0(a3)
    38dc:	00e506b3          	add	a3,a0,a4
    38e0:	00170713          	addi	a4,a4,1
    38e4:	01068023          	sb	a6,0(a3)
    38e8:	fa5ff06f          	j	388c <.L3>

000038ec <.L13>:
    38ec:	fe858693          	addi	a3,a1,-24
    38f0:	fe488793          	addi	a5,a7,-28
    38f4:	00670713          	addi	a4,a4,6

000038f8 <.L15>:
    38f8:	01c6a303          	lw	t1,28(a3)
    38fc:	ff870713          	addi	a4,a4,-8
    3900:	0107ae23          	sw	a6,28(a5)
    3904:	02078813          	addi	a6,a5,32
    3908:	0c070863          	beqz	a4,39d8 <.L23>
    390c:	00080793          	mv	a5,a6
    3910:	02068693          	addi	a3,a3,32
    3914:	00030813          	mv	a6,t1
    3918:	0b00006f          	j	39c8 <.L22>

0000391c <.L12>:
    391c:	fec58693          	addi	a3,a1,-20
    3920:	fe888793          	addi	a5,a7,-24
    3924:	00570713          	addi	a4,a4,5

00003928 <.L16>:
    3928:	0186a303          	lw	t1,24(a3)
    392c:	0107ac23          	sw	a6,24(a5)
    3930:	00030813          	mv	a6,t1
    3934:	fc5ff06f          	j	38f8 <.L15>

00003938 <.L11>:
    3938:	ff058693          	addi	a3,a1,-16
    393c:	fec88793          	addi	a5,a7,-20
    3940:	00470713          	addi	a4,a4,4

00003944 <.L17>:
    3944:	0146a303          	lw	t1,20(a3)
    3948:	0107aa23          	sw	a6,20(a5)
    394c:	00030813          	mv	a6,t1
    3950:	fd9ff06f          	j	3928 <.L16>

00003954 <.L10>:
    3954:	ff458693          	addi	a3,a1,-12
    3958:	ff088793          	addi	a5,a7,-16
    395c:	00370713          	addi	a4,a4,3

00003960 <.L18>:
    3960:	0106a303          	lw	t1,16(a3)
    3964:	0107a823          	sw	a6,16(a5)
    3968:	00030813          	mv	a6,t1
    396c:	fd9ff06f          	j	3944 <.L17>

00003970 <.L9>:
    3970:	ff858693          	addi	a3,a1,-8
    3974:	ff488793          	addi	a5,a7,-12
    3978:	00270713          	addi	a4,a4,2

0000397c <.L19>:
    397c:	00c6a303          	lw	t1,12(a3)
    3980:	0107a623          	sw	a6,12(a5)
    3984:	00030813          	mv	a6,t1
    3988:	fd9ff06f          	j	3960 <.L18>

0000398c <.L7>:
    398c:	ffc58693          	addi	a3,a1,-4
    3990:	ff888793          	addi	a5,a7,-8
    3994:	00170713          	addi	a4,a4,1

00003998 <.L20>:
    3998:	0086a303          	lw	t1,8(a3)
    399c:	0107a423          	sw	a6,8(a5)
    39a0:	00030813          	mv	a6,t1
    39a4:	fd9ff06f          	j	397c <.L19>

000039a8 <.L6>:
    39a8:	00058693          	mv	a3,a1
    39ac:	ffc88793          	addi	a5,a7,-4

000039b0 <.L21>:
    39b0:	0046a303          	lw	t1,4(a3)
    39b4:	0107a223          	sw	a6,4(a5)
    39b8:	00030813          	mv	a6,t1
    39bc:	fddff06f          	j	3998 <.L20>

000039c0 <.L14>:
    39c0:	00458693          	addi	a3,a1,4
    39c4:	fff70713          	addi	a4,a4,-1

000039c8 <.L22>:
    39c8:	0006a303          	lw	t1,0(a3)
    39cc:	0107a023          	sw	a6,0(a5)
    39d0:	00030813          	mv	a6,t1
    39d4:	fddff06f          	j	39b0 <.L21>

000039d8 <.L23>:
    39d8:	0267a023          	sw	t1,32(a5)

000039dc <.L24>:
    39dc:	ffc67693          	andi	a3,a2,-4
    39e0:	00b687b3          	add	a5,a3,a1
    39e4:	00367613          	andi	a2,a2,3
    39e8:	011686b3          	add	a3,a3,a7

000039ec <.L2>:
    39ec:	00000713          	li	a4,0

000039f0 <.L34>:
    39f0:	10e61663          	bne	a2,a4,3afc <.L35>
    39f4:	00008067          	ret

000039f8 <.L5>:
    39f8:	ffc5fe93          	andi	t4,a1,-4
    39fc:	003e1e13          	slli	t3,t3,0x3
    3a00:	02000f93          	li	t6,32
    3a04:	00377f13          	andi	t5,a4,3
    3a08:	00200293          	li	t0,2
    3a0c:	000ea683          	lw	a3,0(t4)
    3a10:	004ea803          	lw	a6,4(t4)
    3a14:	41cf8fb3          	sub	t6,t6,t3
    3a18:	004e8313          	addi	t1,t4,4
    3a1c:	025f0c63          	beq	t5,t0,3a54 <.L25>
    3a20:	00300293          	li	t0,3
    3a24:	065f0863          	beq	t5,t0,3a94 <.L26>
    3a28:	00100293          	li	t0,1
    3a2c:	085f0a63          	beq	t5,t0,3ac0 <.L27>
    3a30:	ffc88793          	addi	a5,a7,-4

00003a34 <.L31>:
    3a34:	00432e83          	lw	t4,4(t1)
    3a38:	01f81f33          	sll	t5,a6,t6
    3a3c:	01c6d6b3          	srl	a3,a3,t3
    3a40:	01e6e6b3          	or	a3,a3,t5
    3a44:	00d7a223          	sw	a3,4(a5)
    3a48:	00080693          	mv	a3,a6
    3a4c:	000e8813          	mv	a6,t4
    3a50:	0500006f          	j	3aa0 <.L30>

00003a54 <.L25>:
    3a54:	ffce8313          	addi	t1,t4,-4
    3a58:	ff488793          	addi	a5,a7,-12
    3a5c:	00270713          	addi	a4,a4,2

00003a60 <.L29>:
    3a60:	01c6d6b3          	srl	a3,a3,t3
    3a64:	01f81f33          	sll	t5,a6,t6
    3a68:	01e6e6b3          	or	a3,a3,t5
    3a6c:	00c32e83          	lw	t4,12(t1)
    3a70:	ffc70713          	addi	a4,a4,-4
    3a74:	00d7a623          	sw	a3,12(a5)
    3a78:	01078693          	addi	a3,a5,16
    3a7c:	06070663          	beqz	a4,3ae8 <.L33>
    3a80:	00068793          	mv	a5,a3
    3a84:	01030313          	addi	t1,t1,16
    3a88:	00080693          	mv	a3,a6
    3a8c:	000e8813          	mv	a6,t4
    3a90:	0380006f          	j	3ac8 <.L32>

00003a94 <.L26>:
    3a94:	000e8313          	mv	t1,t4
    3a98:	ff888793          	addi	a5,a7,-8
    3a9c:	00170713          	addi	a4,a4,1

00003aa0 <.L30>:
    3aa0:	00832e83          	lw	t4,8(t1)
    3aa4:	01f81f33          	sll	t5,a6,t6
    3aa8:	01c6d6b3          	srl	a3,a3,t3
    3aac:	01e6e6b3          	or	a3,a3,t5
    3ab0:	00d7a423          	sw	a3,8(a5)
    3ab4:	00080693          	mv	a3,a6
    3ab8:	000e8813          	mv	a6,t4
    3abc:	fa5ff06f          	j	3a60 <.L29>

00003ac0 <.L27>:
    3ac0:	008e8313          	addi	t1,t4,8
    3ac4:	fff70713          	addi	a4,a4,-1

00003ac8 <.L32>:
    3ac8:	00032e83          	lw	t4,0(t1)
    3acc:	01f81f33          	sll	t5,a6,t6
    3ad0:	01c6d6b3          	srl	a3,a3,t3
    3ad4:	01e6e6b3          	or	a3,a3,t5
    3ad8:	00d7a023          	sw	a3,0(a5)
    3adc:	00080693          	mv	a3,a6
    3ae0:	000e8813          	mv	a6,t4
    3ae4:	f51ff06f          	j	3a34 <.L31>

00003ae8 <.L33>:
    3ae8:	01c85833          	srl	a6,a6,t3
    3aec:	01fe9eb3          	sll	t4,t4,t6
    3af0:	01d86833          	or	a6,a6,t4
    3af4:	0107a823          	sw	a6,16(a5)
    3af8:	ee5ff06f          	j	39dc <.L24>

00003afc <.L35>:
    3afc:	00e785b3          	add	a1,a5,a4
    3b00:	0005c803          	lbu	a6,0(a1)
    3b04:	00e685b3          	add	a1,a3,a4
    3b08:	00170713          	addi	a4,a4,1
    3b0c:	01058023          	sb	a6,0(a1)
    3b10:	ee1ff06f          	j	39f0 <.L34>

00003b14 <__GI_memset>:
    3b14:	00700713          	li	a4,7
    3b18:	00050793          	mv	a5,a0
    3b1c:	04c77263          	bgeu	a4,a2,3b60 <.L2>
    3b20:	010106b7          	lui	a3,0x1010
    3b24:	0ff5f713          	zext.b	a4,a1
    3b28:	10168693          	addi	a3,a3,257 # 1010101 <_ebss+0xfe5631>
    3b2c:	02d70733          	mul	a4,a4,a3

00003b30 <.L3>:
    3b30:	0037f693          	andi	a3,a5,3
    3b34:	02069c63          	bnez	a3,3b6c <.L4>
    3b38:	00c50633          	add	a2,a0,a2
    3b3c:	40f60633          	sub	a2,a2,a5
    3b40:	fe067813          	andi	a6,a2,-32
    3b44:	00f80833          	add	a6,a6,a5
    3b48:	00080693          	mv	a3,a6

00003b4c <.L5>:
    3b4c:	03079663          	bne	a5,a6,3b78 <.L6>
    3b50:	01c67813          	andi	a6,a2,28
    3b54:	00f807b3          	add	a5,a6,a5

00003b58 <.L7>:
    3b58:	04f69463          	bne	a3,a5,3ba0 <.L8>
    3b5c:	00367613          	andi	a2,a2,3

00003b60 <.L2>:
    3b60:	00c78633          	add	a2,a5,a2

00003b64 <.L9>:
    3b64:	04c79463          	bne	a5,a2,3bac <.L10>
    3b68:	00008067          	ret

00003b6c <.L4>:
    3b6c:	00b78023          	sb	a1,0(a5)
    3b70:	00178793          	addi	a5,a5,1
    3b74:	fbdff06f          	j	3b30 <.L3>

00003b78 <.L6>:
    3b78:	00e7a023          	sw	a4,0(a5)
    3b7c:	00e7a223          	sw	a4,4(a5)
    3b80:	00e7a423          	sw	a4,8(a5)
    3b84:	00e7a623          	sw	a4,12(a5)
    3b88:	00e7a823          	sw	a4,16(a5)
    3b8c:	00e7aa23          	sw	a4,20(a5)
    3b90:	00e7ac23          	sw	a4,24(a5)
    3b94:	00e7ae23          	sw	a4,28(a5)
    3b98:	02078793          	addi	a5,a5,32
    3b9c:	fb1ff06f          	j	3b4c <.L5>

00003ba0 <.L8>:
    3ba0:	00e6a023          	sw	a4,0(a3)
    3ba4:	00468693          	addi	a3,a3,4
    3ba8:	fb1ff06f          	j	3b58 <.L7>

00003bac <.L10>:
    3bac:	00b78023          	sb	a1,0(a5)
    3bb0:	00178793          	addi	a5,a5,1
    3bb4:	fb1ff06f          	j	3b64 <.L9>

00003bb8 <__GI_strlen>:
    3bb8:	00050793          	mv	a5,a0

00003bbc <.L2>:
    3bbc:	0037f713          	andi	a4,a5,3
    3bc0:	04071263          	bnez	a4,3c04 <.L5>
    3bc4:	feff0637          	lui	a2,0xfeff0
    3bc8:	808085b7          	lui	a1,0x80808
    3bcc:	eff60613          	addi	a2,a2,-257 # fefefeff <_ebss+0xfefc542f>
    3bd0:	08058593          	addi	a1,a1,128 # 80808080 <_ebss+0x807dd5b0>

00003bd4 <.L6>:
    3bd4:	0007a683          	lw	a3,0(a5)
    3bd8:	00478713          	addi	a4,a5,4
    3bdc:	00c686b3          	add	a3,a3,a2
    3be0:	00b6f6b3          	and	a3,a3,a1
    3be4:	02068c63          	beqz	a3,3c1c <.L7>
    3be8:	ffc74683          	lbu	a3,-4(a4)
    3bec:	02068063          	beqz	a3,3c0c <.L14>
    3bf0:	ffd74683          	lbu	a3,-3(a4)
    3bf4:	02069863          	bnez	a3,3c24 <.L9>
    3bf8:	40a787b3          	sub	a5,a5,a0
    3bfc:	00178513          	addi	a0,a5,1
    3c00:	00008067          	ret

00003c04 <.L5>:
    3c04:	0007c703          	lbu	a4,0(a5)
    3c08:	00071663          	bnez	a4,3c14 <.L3>

00003c0c <.L14>:
    3c0c:	40a78533          	sub	a0,a5,a0
    3c10:	00008067          	ret

00003c14 <.L3>:
    3c14:	00178793          	addi	a5,a5,1
    3c18:	fa5ff06f          	j	3bbc <.L2>

00003c1c <.L7>:
    3c1c:	00070793          	mv	a5,a4
    3c20:	fb5ff06f          	j	3bd4 <.L6>

00003c24 <.L9>:
    3c24:	ffe74683          	lbu	a3,-2(a4)
    3c28:	00069863          	bnez	a3,3c38 <.L10>
    3c2c:	40a787b3          	sub	a5,a5,a0
    3c30:	00278513          	addi	a0,a5,2
    3c34:	00008067          	ret

00003c38 <.L10>:
    3c38:	fff74683          	lbu	a3,-1(a4)
    3c3c:	fe0690e3          	bnez	a3,3c1c <.L7>
    3c40:	40a787b3          	sub	a5,a5,a0
    3c44:	00378513          	addi	a0,a5,3
    3c48:	00008067          	ret

00003c4c <__GI_strnlen>:
    3c4c:	00050693          	mv	a3,a0
    3c50:	00058513          	mv	a0,a1
    3c54:	06058663          	beqz	a1,3cc0 <.L2>
    3c58:	00d58733          	add	a4,a1,a3
    3c5c:	fff00793          	li	a5,-1
    3c60:	00d76463          	bltu	a4,a3,3c68 <.L3>
    3c64:	00070793          	mv	a5,a4

00003c68 <.L3>:
    3c68:	00068713          	mv	a4,a3

00003c6c <.L4>:
    3c6c:	00377613          	andi	a2,a4,3
    3c70:	04061a63          	bnez	a2,3cc4 <.L7>
    3c74:	feff0537          	lui	a0,0xfeff0
    3c78:	80808837          	lui	a6,0x80808
    3c7c:	00070613          	mv	a2,a4
    3c80:	eff50513          	addi	a0,a0,-257 # fefefeff <_ebss+0xfefc542f>
    3c84:	08080813          	addi	a6,a6,128 # 80808080 <_ebss+0x807dd5b0>

00003c88 <.L8>:
    3c88:	02f67663          	bgeu	a2,a5,3cb4 <.L10>
    3c8c:	00062703          	lw	a4,0(a2)
    3c90:	00460593          	addi	a1,a2,4
    3c94:	00a70733          	add	a4,a4,a0
    3c98:	01077733          	and	a4,a4,a6
    3c9c:	06070463          	beqz	a4,3d04 <.L18>
    3ca0:	ffc5c703          	lbu	a4,-4(a1)
    3ca4:	06070663          	beqz	a4,3d10 <.L17>
    3ca8:	ffd5c703          	lbu	a4,-3(a1)
    3cac:	02071c63          	bnez	a4,3ce4 <.L11>
    3cb0:	00160713          	addi	a4,a2,1

00003cb4 <.L10>:
    3cb4:	00f77463          	bgeu	a4,a5,3cbc <.L14>
    3cb8:	00070793          	mv	a5,a4

00003cbc <.L14>:
    3cbc:	40d78533          	sub	a0,a5,a3

00003cc0 <.L2>:
    3cc0:	00008067          	ret

00003cc4 <.L7>:
    3cc4:	00074603          	lbu	a2,0(a4)
    3cc8:	00061a63          	bnez	a2,3cdc <.L5>
    3ccc:	00e7f463          	bgeu	a5,a4,3cd4 <.L6>
    3cd0:	00078713          	mv	a4,a5

00003cd4 <.L6>:
    3cd4:	40d70533          	sub	a0,a4,a3
    3cd8:	00008067          	ret

00003cdc <.L5>:
    3cdc:	00170713          	addi	a4,a4,1
    3ce0:	f8dff06f          	j	3c6c <.L4>

00003ce4 <.L11>:
    3ce4:	ffe5c703          	lbu	a4,-2(a1)
    3ce8:	00071663          	bnez	a4,3cf4 <.L12>
    3cec:	00260713          	addi	a4,a2,2
    3cf0:	fc5ff06f          	j	3cb4 <.L10>

00003cf4 <.L12>:
    3cf4:	fff5c703          	lbu	a4,-1(a1)
    3cf8:	00071663          	bnez	a4,3d04 <.L18>
    3cfc:	00360713          	addi	a4,a2,3
    3d00:	fb5ff06f          	j	3cb4 <.L10>

00003d04 <.L18>:
    3d04:	00078713          	mv	a4,a5
    3d08:	00058613          	mv	a2,a1
    3d0c:	f7dff06f          	j	3c88 <.L8>

00003d10 <.L17>:
    3d10:	00060713          	mv	a4,a2
    3d14:	fa1ff06f          	j	3cb4 <.L10>

00003d18 <__GI___glibc_strerror_r>:
    3d18:	ff010113          	addi	sp,sp,-16
    3d1c:	00812423          	sw	s0,8(sp)
    3d20:	00112623          	sw	ra,12(sp)
    3d24:	00058413          	mv	s0,a1
    3d28:	018000ef          	jal	3d40 <__GI___xpg_strerror_r>
    3d2c:	00c12083          	lw	ra,12(sp)
    3d30:	00040513          	mv	a0,s0
    3d34:	00812403          	lw	s0,8(sp)
    3d38:	01010113          	addi	sp,sp,16
    3d3c:	00008067          	ret

00003d40 <__GI___xpg_strerror_r>:
    3d40:	fa010113          	addi	sp,sp,-96
    3d44:	05312623          	sw	s3,76(sp)
    3d48:	05412423          	sw	s4,72(sp)
    3d4c:	04112e23          	sw	ra,92(sp)
    3d50:	04812c23          	sw	s0,88(sp)
    3d54:	04912a23          	sw	s1,84(sp)
    3d58:	05212823          	sw	s2,80(sp)
    3d5c:	07c00793          	li	a5,124
    3d60:	00058993          	mv	s3,a1
    3d64:	00060a13          	mv	s4,a2
    3d68:	08a7f263          	bgeu	a5,a0,3dec <.L13>

00003d6c <.L3>:
    3d6c:	00050593          	mv	a1,a0
    3d70:	41f55613          	srai	a2,a0,0x1f
    3d74:	00000713          	li	a4,0
    3d78:	ff600693          	li	a3,-10
    3d7c:	03d10513          	addi	a0,sp,61
    3d80:	278060ef          	jal	9ff8 <_uintmaxtostr>
    3d84:	ff250913          	addi	s2,a0,-14
    3d88:	00e00613          	li	a2,14
    3d8c:	0001a597          	auipc	a1,0x1a
    3d90:	03058593          	addi	a1,a1,48 # 1ddbc <unknown.0>
    3d94:	00090513          	mv	a0,s2
    3d98:	ad5ff0ef          	jal	386c <__GI_memcpy>
    3d9c:	01600493          	li	s1,22
    3da0:	01c0006f          	j	3dbc <.L6>

00003da4 <.L5>:
    3da4:	00079463          	bnez	a5,3dac <.L4>
    3da8:	fff48493          	addi	s1,s1,-1

00003dac <.L4>:
    3dac:	00190913          	addi	s2,s2,1

00003db0 <.L2>:
    3db0:	00094783          	lbu	a5,0(s2)
    3db4:	fe0498e3          	bnez	s1,3da4 <.L5>
    3db8:	fa078ae3          	beqz	a5,3d6c <.L3>

00003dbc <.L6>:
    3dbc:	00099463          	bnez	s3,3dc4 <.L7>
    3dc0:	00000a13          	li	s4,0

00003dc4 <.L7>:
    3dc4:	00090513          	mv	a0,s2
    3dc8:	df1ff0ef          	jal	3bb8 <__GI_strlen>
    3dcc:	00150413          	addi	s0,a0,1
    3dd0:	028a7663          	bgeu	s4,s0,3dfc <.L8>
    3dd4:	000a0413          	mv	s0,s4
    3dd8:	02200493          	li	s1,34
    3ddc:	020a1263          	bnez	s4,3e00 <.L9>

00003de0 <.L10>:
    3de0:	775000ef          	jal	4d54 <__errno_location>
    3de4:	00952023          	sw	s1,0(a0)
    3de8:	0340006f          	j	3e1c <.L1>

00003dec <.L13>:
    3dec:	00050493          	mv	s1,a0
    3df0:	00011917          	auipc	s2,0x11
    3df4:	ef490913          	addi	s2,s2,-268 # 14ce4 <_string_syserrmsgs>
    3df8:	fb9ff06f          	j	3db0 <.L2>

00003dfc <.L8>:
    3dfc:	00040e63          	beqz	s0,3e18 <.L11>

00003e00 <.L9>:
    3e00:	00098513          	mv	a0,s3
    3e04:	00040613          	mv	a2,s0
    3e08:	00090593          	mv	a1,s2
    3e0c:	008989b3          	add	s3,s3,s0
    3e10:	a5dff0ef          	jal	386c <__GI_memcpy>
    3e14:	fe098fa3          	sb	zero,-1(s3)

00003e18 <.L11>:
    3e18:	fc0494e3          	bnez	s1,3de0 <.L10>

00003e1c <.L1>:
    3e1c:	05c12083          	lw	ra,92(sp)
    3e20:	05812403          	lw	s0,88(sp)
    3e24:	05012903          	lw	s2,80(sp)
    3e28:	04c12983          	lw	s3,76(sp)
    3e2c:	04812a03          	lw	s4,72(sp)
    3e30:	00048513          	mv	a0,s1
    3e34:	05412483          	lw	s1,84(sp)
    3e38:	06010113          	addi	sp,sp,96
    3e3c:	00008067          	ret

00003e40 <__GI_isatty>:
    3e40:	fb010113          	addi	sp,sp,-80
    3e44:	00410593          	addi	a1,sp,4
    3e48:	04112623          	sw	ra,76(sp)
    3e4c:	014000ef          	jal	3e60 <__GI_tcgetattr>
    3e50:	04c12083          	lw	ra,76(sp)
    3e54:	00153513          	seqz	a0,a0
    3e58:	05010113          	addi	sp,sp,80
    3e5c:	00008067          	ret

00003e60 <__GI_tcgetattr>:
    3e60:	fc010113          	addi	sp,sp,-64
    3e64:	02812c23          	sw	s0,56(sp)
    3e68:	00058413          	mv	s0,a1
    3e6c:	000055b7          	lui	a1,0x5
    3e70:	00c10613          	addi	a2,sp,12
    3e74:	40158593          	addi	a1,a1,1025 # 5401 <__pthread_initialize_manager+0x9>
    3e78:	02912a23          	sw	s1,52(sp)
    3e7c:	02112e23          	sw	ra,60(sp)
    3e80:	0d5030ef          	jal	7754 <__GI_ioctl>
    3e84:	00050493          	mv	s1,a0
    3e88:	04051463          	bnez	a0,3ed0 <.L1>
    3e8c:	00c12783          	lw	a5,12(sp)
    3e90:	01300613          	li	a2,19
    3e94:	01d10593          	addi	a1,sp,29
    3e98:	00f42023          	sw	a5,0(s0)
    3e9c:	01012783          	lw	a5,16(sp)
    3ea0:	01140513          	addi	a0,s0,17
    3ea4:	00f42223          	sw	a5,4(s0)
    3ea8:	01412783          	lw	a5,20(sp)
    3eac:	00f42423          	sw	a5,8(s0)
    3eb0:	01812783          	lw	a5,24(sp)
    3eb4:	00f42623          	sw	a5,12(s0)
    3eb8:	01c14783          	lbu	a5,28(sp)
    3ebc:	00f40823          	sb	a5,16(s0)
    3ec0:	714070ef          	jal	b5d4 <__GI_mempcpy>
    3ec4:	00d00613          	li	a2,13
    3ec8:	00000593          	li	a1,0
    3ecc:	c49ff0ef          	jal	3b14 <__GI_memset>

00003ed0 <.L1>:
    3ed0:	03c12083          	lw	ra,60(sp)
    3ed4:	03812403          	lw	s0,56(sp)
    3ed8:	00048513          	mv	a0,s1
    3edc:	03412483          	lw	s1,52(sp)
    3ee0:	04010113          	addi	sp,sp,64
    3ee4:	00008067          	ret

00003ee8 <__malloc_from_heap>:
    3ee8:	fd010113          	addi	sp,sp,-48
    3eec:	00850513          	addi	a0,a0,8
    3ef0:	02112623          	sw	ra,44(sp)
    3ef4:	00010317          	auipc	t1,0x10
    3ef8:	52432303          	lw	t1,1316(t1) # 14418 <_GLOBAL_OFFSET_TABLE_+0x10>
    3efc:	02912223          	sw	s1,36(sp)
    3f00:	03212023          	sw	s2,32(sp)
    3f04:	01312e23          	sw	s3,28(sp)
    3f08:	01512a23          	sw	s5,20(sp)
    3f0c:	01612823          	sw	s6,16(sp)
    3f10:	00a12623          	sw	a0,12(sp)
    3f14:	02812423          	sw	s0,40(sp)
    3f18:	00060513          	mv	a0,a2
    3f1c:	01412c23          	sw	s4,24(sp)
    3f20:	00060993          	mv	s3,a2
    3f24:	00058a93          	mv	s5,a1
    3f28:	00c10b13          	addi	s6,sp,12
    3f2c:	000300e7          	jalr	t1
    3f30:	000b0593          	mv	a1,s6
    3f34:	000a8513          	mv	a0,s5
    3f38:	3f0000ef          	jal	4328 <__heap_alloc>
    3f3c:	00050493          	mv	s1,a0
    3f40:	00010317          	auipc	t1,0x10
    3f44:	51832303          	lw	t1,1304(t1) # 14458 <_GLOBAL_OFFSET_TABLE_+0x50>
    3f48:	00098513          	mv	a0,s3
    3f4c:	000300e7          	jalr	t1
    3f50:	00048913          	mv	s2,s1
    3f54:	0c049a63          	bnez	s1,4028 <.L2>
    3f58:	01e00513          	li	a0,30
    3f5c:	74c000ef          	jal	46a8 <__GI_sysconf>
    3f60:	00c12783          	lw	a5,12(sp)
    3f64:	0ea7fe63          	bgeu	a5,a0,4060 <.L3>
    3f68:	01e00513          	li	a0,30
    3f6c:	73c000ef          	jal	46a8 <__GI_sysconf>
    3f70:	00050413          	mv	s0,a0

00003f74 <.L4>:
    3f74:	040006b7          	lui	a3,0x4000
    3f78:	00000793          	li	a5,0
    3f7c:	00000713          	li	a4,0
    3f80:	02168693          	addi	a3,a3,33 # 4000021 <_ebss+0x3fd5551>
    3f84:	00300613          	li	a2,3
    3f88:	00040593          	mv	a1,s0
    3f8c:	00000513          	li	a0,0
    3f90:	115030ef          	jal	78a4 <__GI_mmap>
    3f94:	fff00793          	li	a5,-1
    3f98:	00050a13          	mv	s4,a0
    3f9c:	08f50c63          	beq	a0,a5,4034 <.L1>
    3fa0:	00010317          	auipc	t1,0x10
    3fa4:	47832303          	lw	t1,1144(t1) # 14418 <_GLOBAL_OFFSET_TABLE_+0x10>
    3fa8:	00098513          	mv	a0,s3
    3fac:	000300e7          	jalr	t1
    3fb0:	00040613          	mv	a2,s0
    3fb4:	000a0593          	mv	a1,s4
    3fb8:	000a8513          	mv	a0,s5
    3fbc:	3f4000ef          	jal	43b0 <__heap_free>
    3fc0:	000b0593          	mv	a1,s6
    3fc4:	000a8513          	mv	a0,s5
    3fc8:	360000ef          	jal	4328 <__heap_alloc>
    3fcc:	00010617          	auipc	a2,0x10
    3fd0:	47462603          	lw	a2,1140(a2) # 14440 <_GLOBAL_OFFSET_TABLE_+0x38>
    3fd4:	00050913          	mv	s2,a0
    3fd8:	00010597          	auipc	a1,0x10
    3fdc:	4f05a583          	lw	a1,1264(a1) # 144c8 <_GLOBAL_OFFSET_TABLE_+0xc0>
    3fe0:	00c00513          	li	a0,12
    3fe4:	f05ff0ef          	jal	3ee8 <__malloc_from_heap>
    3fe8:	00010617          	auipc	a2,0x10
    3fec:	46c62603          	lw	a2,1132(a2) # 14454 <_GLOBAL_OFFSET_TABLE_+0x4c>
    3ff0:	00062703          	lw	a4,0(a2)
    3ff4:	00050793          	mv	a5,a0
    3ff8:	00000693          	li	a3,0

00003ffc <.L7>:
    3ffc:	08071663          	bnez	a4,4088 <.L9>

00004000 <.L8>:
    4000:	00e7a423          	sw	a4,8(a5)
    4004:	0147a023          	sw	s4,0(a5)
    4008:	0087a223          	sw	s0,4(a5)
    400c:	08068863          	beqz	a3,409c <.L10>
    4010:	00f6a423          	sw	a5,8(a3)

00004014 <.L11>:
    4014:	00098513          	mv	a0,s3
    4018:	00010317          	auipc	t1,0x10
    401c:	44032303          	lw	t1,1088(t1) # 14458 <_GLOBAL_OFFSET_TABLE_+0x50>
    4020:	000300e7          	jalr	t1
    4024:	00090863          	beqz	s2,4034 <.L1>

00004028 <.L2>:
    4028:	00c12783          	lw	a5,12(sp)
    402c:	00890493          	addi	s1,s2,8
    4030:	00f92023          	sw	a5,0(s2)

00004034 <.L1>:
    4034:	02c12083          	lw	ra,44(sp)
    4038:	02812403          	lw	s0,40(sp)
    403c:	02012903          	lw	s2,32(sp)
    4040:	01c12983          	lw	s3,28(sp)
    4044:	01812a03          	lw	s4,24(sp)
    4048:	01412a83          	lw	s5,20(sp)
    404c:	01012b03          	lw	s6,16(sp)
    4050:	00048513          	mv	a0,s1
    4054:	02412483          	lw	s1,36(sp)
    4058:	03010113          	addi	sp,sp,48
    405c:	00008067          	ret

00004060 <.L3>:
    4060:	01e00513          	li	a0,30
    4064:	644000ef          	jal	46a8 <__GI_sysconf>
    4068:	00c12903          	lw	s2,12(sp)
    406c:	fff90913          	addi	s2,s2,-1
    4070:	00a90933          	add	s2,s2,a0
    4074:	01e00513          	li	a0,30
    4078:	630000ef          	jal	46a8 <__GI_sysconf>
    407c:	40a00433          	neg	s0,a0
    4080:	01247433          	and	s0,s0,s2
    4084:	ef1ff06f          	j	3f74 <.L4>

00004088 <.L9>:
    4088:	00072583          	lw	a1,0(a4)
    408c:	f6ba6ae3          	bltu	s4,a1,4000 <.L8>
    4090:	00070693          	mv	a3,a4
    4094:	00872703          	lw	a4,8(a4)
    4098:	f65ff06f          	j	3ffc <.L7>

0000409c <.L10>:
    409c:	00f62023          	sw	a5,0(a2)
    40a0:	f75ff06f          	j	4014 <.L11>

000040a4 <malloc>:
    40a4:	ff010113          	addi	sp,sp,-16
    40a8:	00112623          	sw	ra,12(sp)
    40ac:	02050463          	beqz	a0,40d4 <.L23>
    40b0:	ff000793          	li	a5,-16
    40b4:	02a7f263          	bgeu	a5,a0,40d8 <.L20>

000040b8 <.L22>:
    40b8:	49d000ef          	jal	4d54 <__errno_location>
    40bc:	00c00793          	li	a5,12
    40c0:	00f52023          	sw	a5,0(a0)
    40c4:	00000513          	li	a0,0

000040c8 <.L19>:
    40c8:	00c12083          	lw	ra,12(sp)
    40cc:	01010113          	addi	sp,sp,16
    40d0:	00008067          	ret

000040d4 <.L23>:
    40d4:	00100513          	li	a0,1

000040d8 <.L20>:
    40d8:	00010617          	auipc	a2,0x10
    40dc:	36c62603          	lw	a2,876(a2) # 14444 <_GLOBAL_OFFSET_TABLE_+0x3c>
    40e0:	0001a597          	auipc	a1,0x1a
    40e4:	10058593          	addi	a1,a1,256 # 1e1e0 <__malloc_heap>
    40e8:	e01ff0ef          	jal	3ee8 <__malloc_from_heap>
    40ec:	fc051ee3          	bnez	a0,40c8 <.L19>
    40f0:	fc9ff06f          	j	40b8 <.L22>

000040f4 <__free_to_heap>:
    40f4:	fb010113          	addi	sp,sp,-80
    40f8:	04112623          	sw	ra,76(sp)
    40fc:	04812423          	sw	s0,72(sp)
    4100:	04912223          	sw	s1,68(sp)
    4104:	05212023          	sw	s2,64(sp)
    4108:	03312e23          	sw	s3,60(sp)
    410c:	03412c23          	sw	s4,56(sp)
    4110:	03512a23          	sw	s5,52(sp)
    4114:	03612823          	sw	s6,48(sp)
    4118:	03712623          	sw	s7,44(sp)
    411c:	03812423          	sw	s8,40(sp)
    4120:	03912223          	sw	s9,36(sp)
    4124:	03a12023          	sw	s10,32(sp)
    4128:	01b12e23          	sw	s11,28(sp)
    412c:	00c12423          	sw	a2,8(sp)
    4130:	1a050463          	beqz	a0,42d8 <.L1>
    4134:	ff852603          	lw	a2,-8(a0)
    4138:	00050413          	mv	s0,a0
    413c:	00812503          	lw	a0,8(sp)
    4140:	00010317          	auipc	t1,0x10
    4144:	2d832303          	lw	t1,728(t1) # 14418 <_GLOBAL_OFFSET_TABLE_+0x10>
    4148:	00058913          	mv	s2,a1
    414c:	00c12623          	sw	a2,12(sp)
    4150:	000300e7          	jalr	t1
    4154:	00c12603          	lw	a2,12(sp)
    4158:	ff840593          	addi	a1,s0,-8
    415c:	00090513          	mv	a0,s2
    4160:	250000ef          	jal	43b0 <__heap_free>
    4164:	00052483          	lw	s1,0(a0)
    4168:	00050413          	mv	s0,a0
    416c:	01e00513          	li	a0,30
    4170:	538000ef          	jal	46a8 <__GI_sysconf>
    4174:	00351513          	slli	a0,a0,0x3
    4178:	04a4f663          	bgeu	s1,a0,41c4 <.L3>

0000417c <.L17>:
    417c:	04812403          	lw	s0,72(sp)
    4180:	00812503          	lw	a0,8(sp)
    4184:	04c12083          	lw	ra,76(sp)
    4188:	04412483          	lw	s1,68(sp)
    418c:	04012903          	lw	s2,64(sp)
    4190:	03c12983          	lw	s3,60(sp)
    4194:	03812a03          	lw	s4,56(sp)
    4198:	03412a83          	lw	s5,52(sp)
    419c:	03012b03          	lw	s6,48(sp)
    41a0:	02c12b83          	lw	s7,44(sp)
    41a4:	02812c03          	lw	s8,40(sp)
    41a8:	02412c83          	lw	s9,36(sp)
    41ac:	02012d03          	lw	s10,32(sp)
    41b0:	01c12d83          	lw	s11,28(sp)
    41b4:	00010317          	auipc	t1,0x10
    41b8:	2a432303          	lw	t1,676(t1) # 14458 <_GLOBAL_OFFSET_TABLE_+0x50>
    41bc:	05010113          	addi	sp,sp,80
    41c0:	00030067          	jr	t1

000041c4 <.L3>:
    41c4:	00042783          	lw	a5,0(s0)
    41c8:	00c40d93          	addi	s11,s0,12
    41cc:	40f407b3          	sub	a5,s0,a5
    41d0:	00c78593          	addi	a1,a5,12
    41d4:	00442783          	lw	a5,4(s0)
    41d8:	00078663          	beqz	a5,41e4 <.L4>
    41dc:	00842703          	lw	a4,8(s0)
    41e0:	00e7a423          	sw	a4,8(a5)

000041e4 <.L4>:
    41e4:	00842703          	lw	a4,8(s0)
    41e8:	04070a63          	beqz	a4,423c <.L5>
    41ec:	00f72223          	sw	a5,4(a4)

000041f0 <.L6>:
    41f0:	00010b17          	auipc	s6,0x10
    41f4:	264b2b03          	lw	s6,612(s6) # 14454 <_GLOBAL_OFFSET_TABLE_+0x4c>
    41f8:	000b2403          	lw	s0,0(s6)
    41fc:	00000a93          	li	s5,0
    4200:	00010b97          	auipc	s7,0x10
    4204:	258bab83          	lw	s7,600(s7) # 14458 <_GLOBAL_OFFSET_TABLE_+0x50>
    4208:	00010c17          	auipc	s8,0x10
    420c:	210c2c03          	lw	s8,528(s8) # 14418 <_GLOBAL_OFFSET_TABLE_+0x10>
    4210:	03000c93          	li	s9,48

00004214 <.L7>:
    4214:	00040a63          	beqz	s0,4228 <.L11>
    4218:	00042483          	lw	s1,0(s0)
    421c:	00442d03          	lw	s10,4(s0)
    4220:	009d09b3          	add	s3,s10,s1
    4224:	033df063          	bgeu	s11,s3,4244 <.L16>

00004228 <.L11>:
    4228:	f5b58ae3          	beq	a1,s11,417c <.L17>
    422c:	40bd8633          	sub	a2,s11,a1
    4230:	00090513          	mv	a0,s2
    4234:	17c000ef          	jal	43b0 <__heap_free>
    4238:	f45ff06f          	j	417c <.L17>

0000423c <.L5>:
    423c:	00f92023          	sw	a5,0(s2)
    4240:	fb1ff06f          	j	41f0 <.L6>

00004244 <.L16>:
    4244:	00842a03          	lw	s4,8(s0)
    4248:	08b4e463          	bltu	s1,a1,42d0 <.L8>
    424c:	00958663          	beq	a1,s1,4258 <.L9>
    4250:	40b48633          	sub	a2,s1,a1
    4254:	06ccfe63          	bgeu	s9,a2,42d0 <.L8>

00004258 <.L9>:
    4258:	013d8663          	beq	s11,s3,4264 <.L10>
    425c:	03098613          	addi	a2,s3,48
    4260:	fccde4e3          	bltu	s11,a2,4228 <.L11>

00004264 <.L10>:
    4264:	00b48863          	beq	s1,a1,4274 <.L12>
    4268:	40b48633          	sub	a2,s1,a1
    426c:	00090513          	mv	a0,s2
    4270:	140000ef          	jal	43b0 <__heap_free>

00004274 <.L12>:
    4274:	040a8a63          	beqz	s5,42c8 <.L13>
    4278:	014aa423          	sw	s4,8(s5)

0000427c <.L14>:
    427c:	00010617          	auipc	a2,0x10
    4280:	1c462603          	lw	a2,452(a2) # 14440 <_GLOBAL_OFFSET_TABLE_+0x38>
    4284:	00010597          	auipc	a1,0x10
    4288:	2445a583          	lw	a1,580(a1) # 144c8 <_GLOBAL_OFFSET_TABLE_+0xc0>
    428c:	00040513          	mv	a0,s0
    4290:	e65ff0ef          	jal	40f4 <__free_to_heap>
    4294:	00812503          	lw	a0,8(sp)
    4298:	00000413          	li	s0,0
    429c:	000b80e7          	jalr	s7
    42a0:	000d0593          	mv	a1,s10
    42a4:	00048513          	mv	a0,s1
    42a8:	660030ef          	jal	7908 <__GI_munmap>
    42ac:	00812503          	lw	a0,8(sp)
    42b0:	000c00e7          	jalr	s8
    42b4:	000b2a03          	lw	s4,0(s6)

000042b8 <.L15>:
    42b8:	00040a93          	mv	s5,s0
    42bc:	00098593          	mv	a1,s3
    42c0:	000a0413          	mv	s0,s4
    42c4:	f51ff06f          	j	4214 <.L7>

000042c8 <.L13>:
    42c8:	014b2023          	sw	s4,0(s6)
    42cc:	fb1ff06f          	j	427c <.L14>

000042d0 <.L8>:
    42d0:	00058993          	mv	s3,a1
    42d4:	fe5ff06f          	j	42b8 <.L15>

000042d8 <.L1>:
    42d8:	04c12083          	lw	ra,76(sp)
    42dc:	04812403          	lw	s0,72(sp)
    42e0:	04412483          	lw	s1,68(sp)
    42e4:	04012903          	lw	s2,64(sp)
    42e8:	03c12983          	lw	s3,60(sp)
    42ec:	03812a03          	lw	s4,56(sp)
    42f0:	03412a83          	lw	s5,52(sp)
    42f4:	03012b03          	lw	s6,48(sp)
    42f8:	02c12b83          	lw	s7,44(sp)
    42fc:	02812c03          	lw	s8,40(sp)
    4300:	02412c83          	lw	s9,36(sp)
    4304:	02012d03          	lw	s10,32(sp)
    4308:	01c12d83          	lw	s11,28(sp)
    430c:	05010113          	addi	sp,sp,80
    4310:	00008067          	ret

00004314 <free>:
    4314:	00010617          	auipc	a2,0x10
    4318:	13062603          	lw	a2,304(a2) # 14444 <_GLOBAL_OFFSET_TABLE_+0x3c>
    431c:	0001a597          	auipc	a1,0x1a
    4320:	ec458593          	addi	a1,a1,-316 # 1e1e0 <__malloc_heap>
    4324:	dd1ff06f          	j	40f4 <__free_to_heap>

00004328 <__heap_alloc>:
    4328:	0005a783          	lw	a5,0(a1)
    432c:	00b00713          	li	a4,11
    4330:	00050693          	mv	a3,a0
    4334:	00778793          	addi	a5,a5,7
    4338:	ff87f793          	andi	a5,a5,-8
    433c:	00f76463          	bltu	a4,a5,4344 <.L2>
    4340:	01000793          	li	a5,16

00004344 <.L2>:
    4344:	0006a503          	lw	a0,0(a3)

00004348 <.L3>:
    4348:	00051463          	bnez	a0,4350 <.L11>
    434c:	00008067          	ret

00004350 <.L11>:
    4350:	00052703          	lw	a4,0(a0)
    4354:	04f76a63          	bltu	a4,a5,43a8 <.L4>
    4358:	40e50633          	sub	a2,a0,a4
    435c:	03078813          	addi	a6,a5,48
    4360:	00c60613          	addi	a2,a2,12
    4364:	03077a63          	bgeu	a4,a6,4398 <.L5>
    4368:	00452783          	lw	a5,4(a0)
    436c:	00078663          	beqz	a5,4378 <.L6>
    4370:	00852803          	lw	a6,8(a0)
    4374:	0107a423          	sw	a6,8(a5)

00004378 <.L6>:
    4378:	00852503          	lw	a0,8(a0)
    437c:	00050a63          	beqz	a0,4390 <.L7>
    4380:	00f52223          	sw	a5,4(a0)

00004384 <.L9>:
    4384:	00e5a023          	sw	a4,0(a1)
    4388:	00060513          	mv	a0,a2
    438c:	00008067          	ret

00004390 <.L7>:
    4390:	00f6a023          	sw	a5,0(a3)
    4394:	ff1ff06f          	j	4384 <.L9>

00004398 <.L5>:
    4398:	40f70733          	sub	a4,a4,a5
    439c:	00e52023          	sw	a4,0(a0)
    43a0:	00078713          	mv	a4,a5
    43a4:	fe1ff06f          	j	4384 <.L9>

000043a8 <.L4>:
    43a8:	00452503          	lw	a0,4(a0)
    43ac:	f9dff06f          	j	4348 <.L3>

000043b0 <__heap_free>:
    43b0:	00050813          	mv	a6,a0
    43b4:	00052503          	lw	a0,0(a0)
    43b8:	00c58333          	add	t1,a1,a2
    43bc:	00000793          	li	a5,0

000043c0 <.L2>:
    43c0:	02051863          	bnez	a0,43f0 <.L4>

000043c4 <.L5>:
    43c4:	ff460713          	addi	a4,a2,-12
    43c8:	00e585b3          	add	a1,a1,a4
    43cc:	00c5a023          	sw	a2,0(a1)
    43d0:	00a5a223          	sw	a0,4(a1)
    43d4:	00f5a423          	sw	a5,8(a1)
    43d8:	0c078e63          	beqz	a5,44b4 <.L17>
    43dc:	00b7a223          	sw	a1,4(a5)

000043e0 <.L18>:
    43e0:	00050463          	beqz	a0,43e8 <.L19>
    43e4:	00b52423          	sw	a1,8(a0)

000043e8 <.L19>:
    43e8:	00058513          	mv	a0,a1
    43ec:	00008067          	ret

000043f0 <.L4>:
    43f0:	00c50713          	addi	a4,a0,12
    43f4:	00b77863          	bgeu	a4,a1,4404 <.L3>
    43f8:	00050793          	mv	a5,a0
    43fc:	00452503          	lw	a0,4(a0)
    4400:	fc1ff06f          	j	43c0 <.L2>

00004404 <.L3>:
    4404:	00052683          	lw	a3,0(a0)
    4408:	00c00893          	li	a7,12
    440c:	40d88733          	sub	a4,a7,a3
    4410:	00e50733          	add	a4,a0,a4
    4414:	fae368e3          	bltu	t1,a4,43c4 <.L5>
    4418:	00c686b3          	add	a3,a3,a2
    441c:	02671c63          	bne	a4,t1,4454 <.L6>
    4420:	02078263          	beqz	a5,4444 <.L7>
    4424:	00c78713          	addi	a4,a5,12
    4428:	00e59e63          	bne	a1,a4,4444 <.L7>
    442c:	0007a703          	lw	a4,0(a5)
    4430:	0087a783          	lw	a5,8(a5)
    4434:	00e686b3          	add	a3,a3,a4
    4438:	00078a63          	beqz	a5,444c <.L8>
    443c:	00a7a223          	sw	a0,4(a5)

00004440 <.L9>:
    4440:	00f52423          	sw	a5,8(a0)

00004444 <.L7>:
    4444:	00d52023          	sw	a3,0(a0)
    4448:	00008067          	ret

0000444c <.L8>:
    444c:	00a82023          	sw	a0,0(a6)
    4450:	ff1ff06f          	j	4440 <.L9>

00004454 <.L6>:
    4454:	00452703          	lw	a4,4(a0)
    4458:	02070a63          	beqz	a4,448c <.L10>
    445c:	00072583          	lw	a1,0(a4)
    4460:	40b888b3          	sub	a7,a7,a1
    4464:	011708b3          	add	a7,a4,a7
    4468:	03131263          	bne	t1,a7,448c <.L10>
    446c:	00b686b3          	add	a3,a3,a1
    4470:	00078a63          	beqz	a5,4484 <.L11>
    4474:	00e7a223          	sw	a4,4(a5)

00004478 <.L12>:
    4478:	00f72423          	sw	a5,8(a4)
    447c:	00070513          	mv	a0,a4
    4480:	fc5ff06f          	j	4444 <.L7>

00004484 <.L11>:
    4484:	00e82023          	sw	a4,0(a6)
    4488:	ff1ff06f          	j	4478 <.L12>

0000448c <.L10>:
    448c:	00c50533          	add	a0,a0,a2
    4490:	00e52223          	sw	a4,4(a0)
    4494:	00f52423          	sw	a5,8(a0)
    4498:	00078a63          	beqz	a5,44ac <.L13>
    449c:	00a7a223          	sw	a0,4(a5)

000044a0 <.L14>:
    44a0:	fa0702e3          	beqz	a4,4444 <.L7>
    44a4:	00a72423          	sw	a0,8(a4)
    44a8:	f9dff06f          	j	4444 <.L7>

000044ac <.L13>:
    44ac:	00a82023          	sw	a0,0(a6)
    44b0:	ff1ff06f          	j	44a0 <.L14>

000044b4 <.L17>:
    44b4:	00b82023          	sw	a1,0(a6)
    44b8:	f29ff06f          	j	43e0 <.L18>

000044bc <nprocessors_onln>:
    44bc:	fd010113          	addi	sp,sp,-48
    44c0:	0001a517          	auipc	a0,0x1a
    44c4:	90c50513          	addi	a0,a0,-1780 # 1ddcc <.LC0>
    44c8:	02912223          	sw	s1,36(sp)
    44cc:	02112623          	sw	ra,44(sp)
    44d0:	02812423          	sw	s0,40(sp)
    44d4:	03212023          	sw	s2,32(sp)
    44d8:	01312e23          	sw	s3,28(sp)
    44dc:	01412c23          	sw	s4,24(sp)
    44e0:	01512a23          	sw	s5,20(sp)
    44e4:	01612823          	sw	s6,16(sp)
    44e8:	00012623          	sw	zero,12(sp)
    44ec:	67d030ef          	jal	8368 <__GI_config_open>
    44f0:	00000493          	li	s1,0
    44f4:	0a050e63          	beqz	a0,45b0 <.L19>
    44f8:	00050413          	mv	s0,a0
    44fc:	00c10993          	addi	s3,sp,12
    4500:	0001aa17          	auipc	s4,0x1a
    4504:	8d8a0a13          	addi	s4,s4,-1832 # 1ddd8 <.LC1>
    4508:	06300a93          	li	s5,99
    450c:	07000b13          	li	s6,112

00004510 <.L2>:
    4510:	000a0693          	mv	a3,s4
    4514:	10200613          	li	a2,258
    4518:	00098593          	mv	a1,s3
    451c:	00040513          	mv	a0,s0
    4520:	6dd030ef          	jal	83fc <__GI_config_read>
    4524:	04051063          	bnez	a0,4564 <.L5>

00004528 <.L6>:
    4528:	00040513          	mv	a0,s0
    452c:	68d030ef          	jal	83b8 <__GI_config_close>
    4530:	00049463          	bnez	s1,4538 <.L1>
    4534:	00100493          	li	s1,1

00004538 <.L1>:
    4538:	02c12083          	lw	ra,44(sp)
    453c:	02812403          	lw	s0,40(sp)
    4540:	02012903          	lw	s2,32(sp)
    4544:	01c12983          	lw	s3,28(sp)
    4548:	01812a03          	lw	s4,24(sp)
    454c:	01412a83          	lw	s5,20(sp)
    4550:	01012b03          	lw	s6,16(sp)
    4554:	00048513          	mv	a0,s1
    4558:	02412483          	lw	s1,36(sp)
    455c:	03010113          	addi	sp,sp,48
    4560:	00008067          	ret

00004564 <.L5>:
    4564:	00c12783          	lw	a5,12(sp)
    4568:	0007a903          	lw	s2,0(a5)
    456c:	00094783          	lbu	a5,0(s2)
    4570:	fb5790e3          	bne	a5,s5,4510 <.L2>
    4574:	00194783          	lbu	a5,1(s2)
    4578:	f9679ce3          	bne	a5,s6,4510 <.L2>
    457c:	00294703          	lbu	a4,2(s2)
    4580:	07500793          	li	a5,117
    4584:	f8f716e3          	bne	a4,a5,4510 <.L2>
    4588:	261030ef          	jal	7fe8 <__GI___ctype_b_loc>
    458c:	00394703          	lbu	a4,3(s2)
    4590:	00052783          	lw	a5,0(a0)
    4594:	00171713          	slli	a4,a4,0x1
    4598:	00e787b3          	add	a5,a5,a4
    459c:	0007d783          	lhu	a5,0(a5)
    45a0:	0087f793          	andi	a5,a5,8
    45a4:	f60786e3          	beqz	a5,4510 <.L2>
    45a8:	00148493          	addi	s1,s1,1
    45ac:	f65ff06f          	j	4510 <.L2>

000045b0 <.L19>:
    45b0:	0001a517          	auipc	a0,0x1a
    45b4:	82c50513          	addi	a0,a0,-2004 # 1dddc <.LC2>
    45b8:	5b1030ef          	jal	8368 <__GI_config_open>
    45bc:	00050413          	mv	s0,a0
    45c0:	f60504e3          	beqz	a0,4528 <.L6>
    45c4:	00070937          	lui	s2,0x70
    45c8:	00c10993          	addi	s3,sp,12
    45cc:	dec18a13          	addi	s4,gp,-532 # 14b0c <.LANCHOR0>
    45d0:	20290913          	addi	s2,s2,514 # 70202 <_ebss+0x45732>
    45d4:	0001aa97          	auipc	s5,0x1a
    45d8:	818a8a93          	addi	s5,s5,-2024 # 1ddec <.LC3>

000045dc <.L7>:
    45dc:	000a0693          	mv	a3,s4
    45e0:	00090613          	mv	a2,s2
    45e4:	00098593          	mv	a1,s3
    45e8:	00040513          	mv	a0,s0
    45ec:	611030ef          	jal	83fc <__GI_config_read>
    45f0:	f2050ce3          	beqz	a0,4528 <.L6>
    45f4:	00c12783          	lw	a5,12(sp)
    45f8:	000a8513          	mv	a0,s5
    45fc:	0007a583          	lw	a1,0(a5)
    4600:	240070ef          	jal	b840 <__GI_strcmp>
    4604:	fc051ce3          	bnez	a0,45dc <.L7>
    4608:	00148493          	addi	s1,s1,1
    460c:	fd1ff06f          	j	45dc <.L7>

00004610 <get_phys_pages>:
    4610:	fb010113          	addi	sp,sp,-80
    4614:	04112623          	sw	ra,76(sp)
    4618:	04812423          	sw	s0,72(sp)
    461c:	018030ef          	jal	7634 <__GI_getpagesize>
    4620:	00050413          	mv	s0,a0
    4624:	00010513          	mv	a0,sp
    4628:	7d0030ef          	jal	7df8 <sysinfo>
    462c:	03412783          	lw	a5,52(sp)
    4630:	01012503          	lw	a0,16(sp)
    4634:	00f46e63          	bltu	s0,a5,4650 <.L22>
    4638:	02f45433          	divu	s0,s0,a5
    463c:	02855533          	divu	a0,a0,s0

00004640 <.L21>:
    4640:	04c12083          	lw	ra,76(sp)
    4644:	04812403          	lw	s0,72(sp)
    4648:	05010113          	addi	sp,sp,80
    464c:	00008067          	ret

00004650 <.L22>:
    4650:	0287d7b3          	divu	a5,a5,s0
    4654:	02a78533          	mul	a0,a5,a0
    4658:	fe9ff06f          	j	4640 <.L21>

0000465c <get_avphys_pages>:
    465c:	fb010113          	addi	sp,sp,-80
    4660:	04112623          	sw	ra,76(sp)
    4664:	04812423          	sw	s0,72(sp)
    4668:	7cd020ef          	jal	7634 <__GI_getpagesize>
    466c:	00050413          	mv	s0,a0
    4670:	00010513          	mv	a0,sp
    4674:	784030ef          	jal	7df8 <sysinfo>
    4678:	03412783          	lw	a5,52(sp)
    467c:	01412503          	lw	a0,20(sp)
    4680:	00f46e63          	bltu	s0,a5,469c <.L26>
    4684:	02f45433          	divu	s0,s0,a5
    4688:	02855533          	divu	a0,a0,s0

0000468c <.L25>:
    468c:	04c12083          	lw	ra,76(sp)
    4690:	04812403          	lw	s0,72(sp)
    4694:	05010113          	addi	sp,sp,80
    4698:	00008067          	ret

0000469c <.L26>:
    469c:	0287d7b3          	divu	a5,a5,s0
    46a0:	02a78533          	mul	a0,a5,a0
    46a4:	fe9ff06f          	j	468c <.L25>

000046a8 <__GI_sysconf>:
    46a8:	fd010113          	addi	sp,sp,-48
    46ac:	02112623          	sw	ra,44(sp)
    46b0:	02812423          	sw	s0,40(sp)
    46b4:	02912223          	sw	s1,36(sp)
    46b8:	03212023          	sw	s2,32(sp)
    46bc:	01312e23          	sw	s3,28(sp)
    46c0:	01412c23          	sw	s4,24(sp)
    46c4:	01512a23          	sw	s5,20(sp)
    46c8:	01612823          	sw	s6,16(sp)
    46cc:	0f000793          	li	a5,240
    46d0:	04a7e863          	bltu	a5,a0,4720 <.L30>
    46d4:	a2818713          	addi	a4,gp,-1496 # 14748 <.L32>
    46d8:	00251793          	slli	a5,a0,0x2
    46dc:	00e787b3          	add	a5,a5,a4
    46e0:	0007a783          	lw	a5,0(a5)
    46e4:	00050413          	mv	s0,a0
    46e8:	00e787b3          	add	a5,a5,a4
    46ec:	00078067          	jr	a5

000046f0 <.L66>:
    46f0:	06400413          	li	s0,100

000046f4 <.L65>:
    46f4:	02c12083          	lw	ra,44(sp)
    46f8:	00040513          	mv	a0,s0
    46fc:	02812403          	lw	s0,40(sp)
    4700:	02412483          	lw	s1,36(sp)
    4704:	02012903          	lw	s2,32(sp)
    4708:	01c12983          	lw	s3,28(sp)
    470c:	01812a03          	lw	s4,24(sp)
    4710:	01412a83          	lw	s5,20(sp)
    4714:	01012b03          	lw	s6,16(sp)
    4718:	03010113          	addi	sp,sp,48
    471c:	00008067          	ret

00004720 <.L30>:
    4720:	634000ef          	jal	4d54 <__errno_location>
    4724:	01600793          	li	a5,22
    4728:	00f52023          	sw	a5,0(a0)

0000472c <.L31>:
    472c:	fff00413          	li	s0,-1
    4730:	fc5ff06f          	j	46f4 <.L65>

00004734 <.L67>:
    4734:	00810593          	addi	a1,sp,8
    4738:	00300513          	li	a0,3
    473c:	711020ef          	jal	764c <__GI_getrlimit>
    4740:	00020437          	lui	s0,0x20
    4744:	fa0518e3          	bnez	a0,46f4 <.L65>
    4748:	00812783          	lw	a5,8(sp)
    474c:	00080737          	lui	a4,0x80
    4750:	fae7e2e3          	bltu	a5,a4,46f4 <.L65>
    4754:	0027d413          	srli	s0,a5,0x2
    4758:	f9dff06f          	j	46f4 <.L65>

0000475c <.L64>:
    475c:	02812403          	lw	s0,40(sp)
    4760:	02c12083          	lw	ra,44(sp)
    4764:	02412483          	lw	s1,36(sp)
    4768:	02012903          	lw	s2,32(sp)
    476c:	01c12983          	lw	s3,28(sp)
    4770:	01812a03          	lw	s4,24(sp)
    4774:	01412a83          	lw	s5,20(sp)
    4778:	01012b03          	lw	s6,16(sp)
    477c:	03010113          	addi	sp,sp,48
    4780:	6850206f          	j	7604 <__GI_getdtablesize>

00004784 <.L44>:
    4784:	01000413          	li	s0,16
    4788:	f6dff06f          	j	46f4 <.L65>

0000478c <.L49>:
    478c:	00031437          	lui	s0,0x31
    4790:	06940413          	addi	s0,s0,105 # 31069 <_ebss+0x6599>
    4794:	f61ff06f          	j	46f4 <.L65>

00004798 <.L61>:
    4798:	02812403          	lw	s0,40(sp)
    479c:	02c12083          	lw	ra,44(sp)
    47a0:	02412483          	lw	s1,36(sp)
    47a4:	02012903          	lw	s2,32(sp)
    47a8:	01c12983          	lw	s3,28(sp)
    47ac:	01812a03          	lw	s4,24(sp)
    47b0:	01412a83          	lw	s5,20(sp)
    47b4:	01012b03          	lw	s6,16(sp)
    47b8:	03010113          	addi	sp,sp,48
    47bc:	6790206f          	j	7634 <__GI_getpagesize>

000047c0 <.L43>:
    47c0:	01400413          	li	s0,20
    47c4:	f31ff06f          	j	46f4 <.L65>

000047c8 <.L62>:
    47c8:	00008437          	lui	s0,0x8
    47cc:	f29ff06f          	j	46f4 <.L65>

000047d0 <.L60>:
    47d0:	06300413          	li	s0,99
    47d4:	f21ff06f          	j	46f4 <.L65>

000047d8 <.L35>:
    47d8:	00001437          	lui	s0,0x1
    47dc:	80040413          	addi	s0,s0,-2048 # 800 <core_list_init+0x28>
    47e0:	f15ff06f          	j	46f4 <.L65>

000047e4 <.L59>:
    47e4:	3e800413          	li	s0,1000
    47e8:	f0dff06f          	j	46f4 <.L65>

000047ec <.L38>:
    47ec:	0ff00413          	li	s0,255
    47f0:	f05ff06f          	j	46f4 <.L65>

000047f4 <.L40>:
    47f4:	00008437          	lui	s0,0x8

000047f8 <.L83>:
    47f8:	fff40413          	addi	s0,s0,-1 # 7fff <__GI___ctype_b_loc+0x17>
    47fc:	ef9ff06f          	j	46f4 <.L65>

00004800 <.L50>:
    4800:	00400413          	li	s0,4
    4804:	ef1ff06f          	j	46f4 <.L65>

00004808 <.L57>:
    4808:	40000413          	li	s0,1024
    480c:	ee9ff06f          	j	46f4 <.L65>

00004810 <.L56>:
    4810:	00019517          	auipc	a0,0x19
    4814:	5e850513          	addi	a0,a0,1512 # 1ddf8 <.LC5>
    4818:	1f1030ef          	jal	8208 <__GI_opendir>
    481c:	00050913          	mv	s2,a0
    4820:	00000413          	li	s0,0
    4824:	08050063          	beqz	a0,48a4 <.L81>
    4828:	000109b7          	lui	s3,0x10
    482c:	00007a37          	lui	s4,0x7
    4830:	ffff0ab7          	lui	s5,0xffff0
    4834:	63040b37          	lui	s6,0x63040
    4838:	fff98993          	addi	s3,s3,-1 # ffff <.LBB97+0x3>
    483c:	570a0a13          	addi	s4,s4,1392 # 7570 <.L1+0x8>

00004840 <.L68>:
    4840:	00090513          	mv	a0,s2
    4844:	249030ef          	jal	828c <__GI_readdir64>
    4848:	00050493          	mv	s1,a0
    484c:	00051c63          	bnez	a0,4864 <.L71>
    4850:	00090513          	mv	a0,s2
    4854:	7ac030ef          	jal	8000 <__GI_closedir>

00004858 <.L72>:
    4858:	e8041ee3          	bnez	s0,46f4 <.L65>

0000485c <.L33>:
    485c:	00100413          	li	s0,1
    4860:	e95ff06f          	j	46f4 <.L65>

00004864 <.L71>:
    4864:	0104a783          	lw	a5,16(s1)
    4868:	00faf7b3          	and	a5,s5,a5
    486c:	fd679ae3          	bne	a5,s6,4840 <.L68>
    4870:	0144a783          	lw	a5,20(s1)
    4874:	0137f7b3          	and	a5,a5,s3
    4878:	fd4794e3          	bne	a5,s4,4840 <.L68>
    487c:	76c030ef          	jal	7fe8 <__GI___ctype_b_loc>
    4880:	0164c703          	lbu	a4,22(s1)
    4884:	00052783          	lw	a5,0(a0)
    4888:	00171713          	slli	a4,a4,0x1
    488c:	00e787b3          	add	a5,a5,a4
    4890:	0007d783          	lhu	a5,0(a5)
    4894:	0087f793          	andi	a5,a5,8
    4898:	fa0784e3          	beqz	a5,4840 <.L68>
    489c:	00140413          	addi	s0,s0,1
    48a0:	fa1ff06f          	j	4840 <.L68>

000048a4 <.L81>:
    48a4:	c19ff0ef          	jal	44bc <nprocessors_onln>
    48a8:	00050413          	mv	s0,a0
    48ac:	fadff06f          	j	4858 <.L72>

000048b0 <.L55>:
    48b0:	02812403          	lw	s0,40(sp)
    48b4:	02c12083          	lw	ra,44(sp)
    48b8:	02412483          	lw	s1,36(sp)
    48bc:	02012903          	lw	s2,32(sp)
    48c0:	01c12983          	lw	s3,28(sp)
    48c4:	01812a03          	lw	s4,24(sp)
    48c8:	01412a83          	lw	s5,20(sp)
    48cc:	01012b03          	lw	s6,16(sp)
    48d0:	03010113          	addi	sp,sp,48
    48d4:	be9ff06f          	j	44bc <nprocessors_onln>

000048d8 <.L54>:
    48d8:	02812403          	lw	s0,40(sp)
    48dc:	02c12083          	lw	ra,44(sp)
    48e0:	02412483          	lw	s1,36(sp)
    48e4:	02012903          	lw	s2,32(sp)
    48e8:	01c12983          	lw	s3,28(sp)
    48ec:	01812a03          	lw	s4,24(sp)
    48f0:	01412a83          	lw	s5,20(sp)
    48f4:	01012b03          	lw	s6,16(sp)
    48f8:	03010113          	addi	sp,sp,48
    48fc:	d15ff06f          	j	4610 <get_phys_pages>

00004900 <.L53>:
    4900:	02812403          	lw	s0,40(sp)
    4904:	02c12083          	lw	ra,44(sp)
    4908:	02412483          	lw	s1,36(sp)
    490c:	02012903          	lw	s2,32(sp)
    4910:	01c12983          	lw	s3,28(sp)
    4914:	01812a03          	lw	s4,24(sp)
    4918:	01412a83          	lw	s5,20(sp)
    491c:	01012b03          	lw	s6,16(sp)
    4920:	03010113          	addi	sp,sp,48
    4924:	d39ff06f          	j	465c <get_avphys_pages>

00004928 <.L52>:
    4928:	00001437          	lui	s0,0x1
    492c:	dc9ff06f          	j	46f4 <.L65>

00004930 <.L51>:
    4930:	2bc00413          	li	s0,700
    4934:	dc1ff06f          	j	46f4 <.L65>

00004938 <.L48>:
    4938:	00800413          	li	s0,8
    493c:	db9ff06f          	j	46f4 <.L65>

00004940 <.L47>:
    4940:	00000413          	li	s0,0
    4944:	db1ff06f          	j	46f4 <.L65>

00004948 <.L34>:
    4948:	80000437          	lui	s0,0x80000
    494c:	eadff06f          	j	47f8 <.L83>

00004950 <.L46>:
    4950:	80000437          	lui	s0,0x80000
    4954:	da1ff06f          	j	46f4 <.L65>

00004958 <.L45>:
    4958:	02000413          	li	s0,32
    495c:	d99ff06f          	j	46f4 <.L65>

00004960 <.L42>:
    4960:	07f00413          	li	s0,127
    4964:	d91ff06f          	j	46f4 <.L65>

00004968 <.L41>:
    4968:	f8000413          	li	s0,-128
    496c:	d89ff06f          	j	46f4 <.L65>

00004970 <.L39>:
    4970:	ffff8437          	lui	s0,0xffff8
    4974:	d81ff06f          	j	46f4 <.L65>

00004978 <.L37>:
    4978:	00010437          	lui	s0,0x10
    497c:	e7dff06f          	j	47f8 <.L83>

00004980 <.L36>:
    4980:	00900413          	li	s0,9
    4984:	d71ff06f          	j	46f4 <.L65>

00004988 <.L58>:
    4988:	10000413          	li	s0,256
    498c:	d69ff06f          	j	46f4 <.L65>

00004990 <.L73>:
    4990:	00010437          	lui	s0,0x10
    4994:	d61ff06f          	j	46f4 <.L65>

00004998 <__pthread_mutex_trylock>:
    4998:	00000513          	li	a0,0
    499c:	00008067          	ret

000049a0 <__pthread_mutex_init>:
    49a0:	00000513          	li	a0,0
    49a4:	00008067          	ret

000049a8 <_pthread_cleanup_push_defer>:
    49a8:	00b52023          	sw	a1,0(a0)
    49ac:	00c52223          	sw	a2,4(a0)
    49b0:	00008067          	ret

000049b4 <_pthread_cleanup_pop_restore>:
    49b4:	00058863          	beqz	a1,49c4 <.L4>
    49b8:	00052783          	lw	a5,0(a0)
    49bc:	00452503          	lw	a0,4(a0)
    49c0:	00078067          	jr	a5

000049c4 <.L4>:
    49c4:	00008067          	ret

000049c8 <__uClibc_init>:
    49c8:	00023797          	auipc	a5,0x23
    49cc:	3b878793          	addi	a5,a5,952 # 27d80 <__pagesize>
    49d0:	0007a703          	lw	a4,0(a5)
    49d4:	06071063          	bnez	a4,4a34 <.L22>
    49d8:	ff010113          	addi	sp,sp,-16
    49dc:	00112623          	sw	ra,12(sp)
    49e0:	00001737          	lui	a4,0x1
    49e4:	00e7a023          	sw	a4,0(a5)
    49e8:	00010797          	auipc	a5,0x10
    49ec:	a8c7a783          	lw	a5,-1396(a5) # 14474 <_GLOBAL_OFFSET_TABLE_+0x6c>
    49f0:	00078463          	beqz	a5,49f8 <.L9>
    49f4:	000780e7          	jalr	a5

000049f8 <.L9>:
    49f8:	00010717          	auipc	a4,0x10
    49fc:	a3c72703          	lw	a4,-1476(a4) # 14434 <_GLOBAL_OFFSET_TABLE_+0x2c>
    4a00:	00070793          	mv	a5,a4
    4a04:	00078463          	beqz	a5,4a0c <.L10>
    4a08:	000700e7          	jalr	a4

00004a0c <.L10>:
    4a0c:	00010717          	auipc	a4,0x10
    4a10:	ab872703          	lw	a4,-1352(a4) # 144c4 <_GLOBAL_OFFSET_TABLE_+0xbc>
    4a14:	00070793          	mv	a5,a4
    4a18:	00078863          	beqz	a5,4a28 <.L6>
    4a1c:	00c12083          	lw	ra,12(sp)
    4a20:	01010113          	addi	sp,sp,16
    4a24:	00070067          	jr	a4

00004a28 <.L6>:
    4a28:	00c12083          	lw	ra,12(sp)
    4a2c:	01010113          	addi	sp,sp,16
    4a30:	00008067          	ret

00004a34 <.L22>:
    4a34:	00008067          	ret

00004a38 <__uClibc_fini>:
    4a38:	ff010113          	addi	sp,sp,-16
    4a3c:	00812423          	sw	s0,8(sp)
    4a40:	00912223          	sw	s1,4(sp)
    4a44:	0001e417          	auipc	s0,0x1e
    4a48:	ad040413          	addi	s0,s0,-1328 # 22514 <__TMC_END__>
    4a4c:	0001e497          	auipc	s1,0x1e
    4a50:	ac448493          	addi	s1,s1,-1340 # 22510 <__do_global_dtors_aux_fini_array_entry>
    4a54:	40940433          	sub	s0,s0,s1
    4a58:	40245413          	srai	s0,s0,0x2
    4a5c:	01212023          	sw	s2,0(sp)
    4a60:	00112623          	sw	ra,12(sp)
    4a64:	fff40413          	addi	s0,s0,-1
    4a68:	fff00913          	li	s2,-1

00004a6c <.L26>:
    4a6c:	03241c63          	bne	s0,s2,4aa4 <.L27>
    4a70:	00023417          	auipc	s0,0x23
    4a74:	31040413          	addi	s0,s0,784 # 27d80 <__pagesize>
    4a78:	00442783          	lw	a5,4(s0)
    4a7c:	00078463          	beqz	a5,4a84 <.L28>
    4a80:	000780e7          	jalr	a5

00004a84 <.L28>:
    4a84:	00842783          	lw	a5,8(s0)
    4a88:	02078a63          	beqz	a5,4abc <.L25>
    4a8c:	00812403          	lw	s0,8(sp)
    4a90:	00c12083          	lw	ra,12(sp)
    4a94:	00412483          	lw	s1,4(sp)
    4a98:	00012903          	lw	s2,0(sp)
    4a9c:	01010113          	addi	sp,sp,16
    4aa0:	00078067          	jr	a5

00004aa4 <.L27>:
    4aa4:	00241793          	slli	a5,s0,0x2
    4aa8:	00f487b3          	add	a5,s1,a5
    4aac:	0007a783          	lw	a5,0(a5)
    4ab0:	fff40413          	addi	s0,s0,-1
    4ab4:	000780e7          	jalr	a5
    4ab8:	fb5ff06f          	j	4a6c <.L26>

00004abc <.L25>:
    4abc:	00c12083          	lw	ra,12(sp)
    4ac0:	00812403          	lw	s0,8(sp)
    4ac4:	00412483          	lw	s1,4(sp)
    4ac8:	00012903          	lw	s2,0(sp)
    4acc:	01010113          	addi	sp,sp,16
    4ad0:	00008067          	ret

00004ad4 <__uClibc_main>:
    4ad4:	f5010113          	addi	sp,sp,-176
    4ad8:	0a812423          	sw	s0,168(sp)
    4adc:	0b212023          	sw	s2,160(sp)
    4ae0:	09312e23          	sw	s3,156(sp)
    4ae4:	09412c23          	sw	s4,152(sp)
    4ae8:	09512a23          	sw	s5,148(sp)
    4aec:	09612823          	sw	s6,144(sp)
    4af0:	09712623          	sw	s7,140(sp)
    4af4:	0a112623          	sw	ra,172(sp)
    4af8:	0a912223          	sw	s1,164(sp)
    4afc:	09812423          	sw	s8,136(sp)
    4b00:	09912223          	sw	s9,132(sp)
    4b04:	09a12023          	sw	s10,128(sp)
    4b08:	00070a93          	mv	s5,a4
    4b0c:	00023b17          	auipc	s6,0x23
    4b10:	274b0b13          	addi	s6,s6,628 # 27d80 <__pagesize>
    4b14:	00010717          	auipc	a4,0x10
    4b18:	90c72703          	lw	a4,-1780(a4) # 14420 <_GLOBAL_OFFSET_TABLE_+0x18>
    4b1c:	01072023          	sw	a6,0(a4)
    4b20:	00fb2423          	sw	a5,8(s6)
    4b24:	00158793          	addi	a5,a1,1
    4b28:	00068993          	mv	s3,a3
    4b2c:	00279793          	slli	a5,a5,0x2
    4b30:	00062683          	lw	a3,0(a2)
    4b34:	00f60733          	add	a4,a2,a5
    4b38:	00010b97          	auipc	s7,0x10
    4b3c:	914bab83          	lw	s7,-1772(s7) # 1444c <_GLOBAL_OFFSET_TABLE_+0x44>
    4b40:	00eba023          	sw	a4,0(s7)
    4b44:	00050a13          	mv	s4,a0
    4b48:	00058913          	mv	s2,a1
    4b4c:	00060413          	mv	s0,a2
    4b50:	00d71863          	bne	a4,a3,4b60 <.L35>
    4b54:	ffc78793          	addi	a5,a5,-4
    4b58:	00f607b3          	add	a5,a2,a5
    4b5c:	00fba023          	sw	a5,0(s7)

00004b60 <.L35>:
    4b60:	00810c93          	addi	s9,sp,8
    4b64:	07800613          	li	a2,120
    4b68:	00000593          	li	a1,0
    4b6c:	000c8513          	mv	a0,s9
    4b70:	fa5fe0ef          	jal	3b14 <__GI_memset>
    4b74:	000bac03          	lw	s8,0(s7)

00004b78 <.L36>:
    4b78:	000c2783          	lw	a5,0(s8)
    4b7c:	004c0c13          	addi	s8,s8,4
    4b80:	fe079ce3          	bnez	a5,4b78 <.L36>
    4b84:	00e00d13          	li	s10,14

00004b88 <.L37>:
    4b88:	000c2483          	lw	s1,0(s8)
    4b8c:	0c049a63          	bnez	s1,4c60 <.L39>
    4b90:	000c8513          	mv	a0,s9
    4b94:	120000ef          	jal	4cb4 <_dl_aux_init>
    4b98:	e31ff0ef          	jal	49c8 <__uClibc_init>
    4b9c:	00042783          	lw	a5,0(s0)
    4ba0:	00019717          	auipc	a4,0x19
    4ba4:	64f72423          	sw	a5,1608(a4) # 1e1e8 <__uclibc_progname>
    4ba8:	02078a63          	beqz	a5,4bdc <.L40>
    4bac:	00010717          	auipc	a4,0x10
    4bb0:	94472703          	lw	a4,-1724(a4) # 144f0 <_GLOBAL_OFFSET_TABLE_+0xe8>
    4bb4:	00f72023          	sw	a5,0(a4)
    4bb8:	00042503          	lw	a0,0(s0)
    4bbc:	02f00593          	li	a1,47
    4bc0:	505060ef          	jal	b8c4 <__GI_strrchr>
    4bc4:	00010797          	auipc	a5,0x10
    4bc8:	8b87a783          	lw	a5,-1864(a5) # 1447c <_GLOBAL_OFFSET_TABLE_+0x74>
    4bcc:	00a7a023          	sw	a0,0(a5)
    4bd0:	0a050863          	beqz	a0,4c80 <.L41>
    4bd4:	00150513          	addi	a0,a0,1
    4bd8:	00a7a023          	sw	a0,0(a5)

00004bdc <.L40>:
    4bdc:	015b2223          	sw	s5,4(s6)
    4be0:	0001eb17          	auipc	s6,0x1e
    4be4:	928b0b13          	addi	s6,s6,-1752 # 22508 <__preinit_array_start>
    4be8:	0001ea97          	auipc	s5,0x1e
    4bec:	924a8a93          	addi	s5,s5,-1756 # 2250c <__frame_dummy_init_array_entry>
    4bf0:	416a8ab3          	sub	s5,s5,s6
    4bf4:	402ada93          	srai	s5,s5,0x2
    4bf8:	00000c13          	li	s8,0

00004bfc <.L42>:
    4bfc:	095c1863          	bne	s8,s5,4c8c <.L43>
    4c00:	00098463          	beqz	s3,4c08 <.L44>
    4c04:	000980e7          	jalr	s3

00004c08 <.L44>:
    4c08:	0001ea97          	auipc	s5,0x1e
    4c0c:	904a8a93          	addi	s5,s5,-1788 # 2250c <__frame_dummy_init_array_entry>
    4c10:	0001e997          	auipc	s3,0x1e
    4c14:	90098993          	addi	s3,s3,-1792 # 22510 <__do_global_dtors_aux_fini_array_entry>
    4c18:	415989b3          	sub	s3,s3,s5
    4c1c:	4029d993          	srai	s3,s3,0x2

00004c20 <.L45>:
    4c20:	08999063          	bne	s3,s1,4ca0 <.L46>
    4c24:	00010797          	auipc	a5,0x10
    4c28:	89c7a783          	lw	a5,-1892(a5) # 144c0 <_GLOBAL_OFFSET_TABLE_+0xb8>
    4c2c:	00078663          	beqz	a5,4c38 <.L47>
    4c30:	124000ef          	jal	4d54 <__errno_location>
    4c34:	00052023          	sw	zero,0(a0)

00004c38 <.L47>:
    4c38:	00010797          	auipc	a5,0x10
    4c3c:	86c7a783          	lw	a5,-1940(a5) # 144a4 <_GLOBAL_OFFSET_TABLE_+0x9c>
    4c40:	00078663          	beqz	a5,4c4c <.L48>
    4c44:	12c000ef          	jal	4d70 <__h_errno_location>
    4c48:	00052023          	sw	zero,0(a0)

00004c4c <.L48>:
    4c4c:	000ba603          	lw	a2,0(s7)
    4c50:	00040593          	mv	a1,s0
    4c54:	00090513          	mv	a0,s2
    4c58:	000a00e7          	jalr	s4
    4c5c:	2a8070ef          	jal	bf04 <__GI_exit>

00004c60 <.L39>:
    4c60:	009d6c63          	bltu	s10,s1,4c78 <.L38>
    4c64:	00349513          	slli	a0,s1,0x3
    4c68:	00800613          	li	a2,8
    4c6c:	000c0593          	mv	a1,s8
    4c70:	00ac8533          	add	a0,s9,a0
    4c74:	bf9fe0ef          	jal	386c <__GI_memcpy>

00004c78 <.L38>:
    4c78:	008c0c13          	addi	s8,s8,8
    4c7c:	f0dff06f          	j	4b88 <.L37>

00004c80 <.L41>:
    4c80:	00042703          	lw	a4,0(s0)
    4c84:	00e7a023          	sw	a4,0(a5)
    4c88:	f55ff06f          	j	4bdc <.L40>

00004c8c <.L43>:
    4c8c:	000b2783          	lw	a5,0(s6)
    4c90:	001c0c13          	addi	s8,s8,1
    4c94:	004b0b13          	addi	s6,s6,4
    4c98:	000780e7          	jalr	a5
    4c9c:	f61ff06f          	j	4bfc <.L42>

00004ca0 <.L46>:
    4ca0:	000aa783          	lw	a5,0(s5)
    4ca4:	00148493          	addi	s1,s1,1
    4ca8:	004a8a93          	addi	s5,s5,4
    4cac:	000780e7          	jalr	a5
    4cb0:	f71ff06f          	j	4c20 <.L45>

00004cb4 <_dl_aux_init>:
    4cb4:	01c52703          	lw	a4,28(a0)
    4cb8:	0000f797          	auipc	a5,0xf
    4cbc:	7d07a783          	lw	a5,2000(a5) # 14488 <_GLOBAL_OFFSET_TABLE_+0x80>
    4cc0:	00e7a023          	sw	a4,0(a5)
    4cc4:	02c52703          	lw	a4,44(a0)
    4cc8:	0000f797          	auipc	a5,0xf
    4ccc:	7f47a783          	lw	a5,2036(a5) # 144bc <_GLOBAL_OFFSET_TABLE_+0xb4>
    4cd0:	00e7a023          	sw	a4,0(a5)
    4cd4:	03452783          	lw	a5,52(a0)
    4cd8:	00079463          	bnez	a5,4ce0 <.L2>
    4cdc:	000017b7          	lui	a5,0x1

00004ce0 <.L2>:
    4ce0:	00010717          	auipc	a4,0x10
    4ce4:	80c72703          	lw	a4,-2036(a4) # 144ec <_GLOBAL_OFFSET_TABLE_+0xe4>
    4ce8:	00f72023          	sw	a5,0(a4)
    4cec:	00008067          	ret

00004cf0 <thread_self>:
    4cf0:	0000f717          	auipc	a4,0xf
    4cf4:	74872703          	lw	a4,1864(a4) # 14438 <_GLOBAL_OFFSET_TABLE_+0x30>
    4cf8:	00072703          	lw	a4,0(a4)
    4cfc:	00010793          	mv	a5,sp
    4d00:	02070e63          	beqz	a4,4d3c <.L6>
    4d04:	00e7ea63          	bltu	a5,a4,4d18 <.L3>
    4d08:	0000f717          	auipc	a4,0xf
    4d0c:	7a072703          	lw	a4,1952(a4) # 144a8 <_GLOBAL_OFFSET_TABLE_+0xa0>
    4d10:	00072703          	lw	a4,0(a4)
    4d14:	02e7e463          	bltu	a5,a4,4d3c <.L6>

00004d18 <.L3>:
    4d18:	0000f717          	auipc	a4,0xf
    4d1c:	70c72703          	lw	a4,1804(a4) # 14424 <_GLOBAL_OFFSET_TABLE_+0x1c>
    4d20:	00072703          	lw	a4,0(a4)
    4d24:	00e7ea63          	bltu	a5,a4,4d38 <.L4>
    4d28:	0000f717          	auipc	a4,0xf
    4d2c:	79072703          	lw	a4,1936(a4) # 144b8 <_GLOBAL_OFFSET_TABLE_+0xb0>
    4d30:	00072703          	lw	a4,0(a4)
    4d34:	00e7ea63          	bltu	a5,a4,4d48 <.L7>

00004d38 <.L4>:
    4d38:	45c0006f          	j	5194 <__pthread_find_self>

00004d3c <.L6>:
    4d3c:	0000f517          	auipc	a0,0xf
    4d40:	76452503          	lw	a0,1892(a0) # 144a0 <_GLOBAL_OFFSET_TABLE_+0x98>
    4d44:	00008067          	ret

00004d48 <.L7>:
    4d48:	0000f517          	auipc	a0,0xf
    4d4c:	72452503          	lw	a0,1828(a0) # 1446c <_GLOBAL_OFFSET_TABLE_+0x64>
    4d50:	00008067          	ret

00004d54 <__errno_location>:
    4d54:	ff010113          	addi	sp,sp,-16
    4d58:	00112623          	sw	ra,12(sp)
    4d5c:	f95ff0ef          	jal	4cf0 <thread_self>
    4d60:	00c12083          	lw	ra,12(sp)
    4d64:	04452503          	lw	a0,68(a0)
    4d68:	01010113          	addi	sp,sp,16
    4d6c:	00008067          	ret

00004d70 <__h_errno_location>:
    4d70:	ff010113          	addi	sp,sp,-16
    4d74:	00112623          	sw	ra,12(sp)
    4d78:	f79ff0ef          	jal	4cf0 <thread_self>
    4d7c:	00c12083          	lw	ra,12(sp)
    4d80:	04c52503          	lw	a0,76(a0)
    4d84:	01010113          	addi	sp,sp,16
    4d88:	00008067          	ret

00004d8c <pthread_handle_sigdebug>:
    4d8c:	00008067          	ret

00004d90 <__pthread_wait_for_restart_signal>:
    4d90:	fe010113          	addi	sp,sp,-32
    4d94:	00912a23          	sw	s1,20(sp)
    4d98:	00810493          	addi	s1,sp,8
    4d9c:	00812c23          	sw	s0,24(sp)
    4da0:	00048613          	mv	a2,s1
    4da4:	00050413          	mv	s0,a0
    4da8:	00000593          	li	a1,0
    4dac:	00200513          	li	a0,2
    4db0:	00112e23          	sw	ra,28(sp)
    4db4:	01212823          	sw	s2,16(sp)
    4db8:	6ed020ef          	jal	7ca4 <__GI_sigprocmask>
    4dbc:	0000f917          	auipc	s2,0xf
    4dc0:	71892903          	lw	s2,1816(s2) # 144d4 <_GLOBAL_OFFSET_TABLE_+0xcc>
    4dc4:	00092583          	lw	a1,0(s2)
    4dc8:	00048513          	mv	a0,s1
    4dcc:	5e9060ef          	jal	bbb4 <__GI_sigdelset>
    4dd0:	02042023          	sw	zero,32(s0)

00004dd4 <.L3>:
    4dd4:	00048513          	mv	a0,s1
    4dd8:	715020ef          	jal	7cec <__libc_sigsuspend>
    4ddc:	02042703          	lw	a4,32(s0)
    4de0:	00092783          	lw	a5,0(s2)
    4de4:	fef718e3          	bne	a4,a5,4dd4 <.L3>
    4de8:	01c12083          	lw	ra,28(sp)
    4dec:	01812403          	lw	s0,24(sp)
    4df0:	01412483          	lw	s1,20(sp)
    4df4:	01012903          	lw	s2,16(sp)
    4df8:	02010113          	addi	sp,sp,32
    4dfc:	00008067          	ret

00004e00 <__pthread_restart_new>:
    4e00:	0000f797          	auipc	a5,0xf
    4e04:	6d47a783          	lw	a5,1748(a5) # 144d4 <_GLOBAL_OFFSET_TABLE_+0xcc>
    4e08:	0007a583          	lw	a1,0(a5)
    4e0c:	01452503          	lw	a0,20(a0)
    4e10:	1a90206f          	j	77b8 <__GI_kill>

00004e14 <__pthread_timedsuspend_new>:
    4e14:	f5010113          	addi	sp,sp,-176
    4e18:	00a12423          	sw	a0,8(sp)
    4e1c:	00b12623          	sw	a1,12(sp)
    4e20:	04c10513          	addi	a0,sp,76
    4e24:	00100593          	li	a1,1
    4e28:	0a112623          	sw	ra,172(sp)
    4e2c:	0a812423          	sw	s0,168(sp)
    4e30:	0a912223          	sw	s1,164(sp)
    4e34:	0b212023          	sw	s2,160(sp)
    4e38:	09312e23          	sw	s3,156(sp)
    4e3c:	09412c23          	sw	s4,152(sp)
    4e40:	610020ef          	jal	7450 <__GI___sigsetjmp>
    4e44:	00100413          	li	s0,1
    4e48:	0e051a63          	bnez	a0,4f3c <.L9>
    4e4c:	00812703          	lw	a4,8(sp)
    4e50:	04c10793          	addi	a5,sp,76
    4e54:	01810493          	addi	s1,sp,24
    4e58:	02f72223          	sw	a5,36(a4)
    4e5c:	0000f797          	auipc	a5,0xf
    4e60:	6787a783          	lw	a5,1656(a5) # 144d4 <_GLOBAL_OFFSET_TABLE_+0xcc>
    4e64:	0007a583          	lw	a1,0(a5)
    4e68:	02072023          	sw	zero,32(a4)
    4e6c:	00050413          	mv	s0,a0
    4e70:	00048513          	mv	a0,s1
    4e74:	00012c23          	sw	zero,24(sp)
    4e78:	00012e23          	sw	zero,28(sp)
    4e7c:	4fd060ef          	jal	bb78 <__GI_sigaddset>
    4e80:	00048593          	mv	a1,s1
    4e84:	02010613          	addi	a2,sp,32
    4e88:	00100513          	li	a0,1
    4e8c:	619020ef          	jal	7ca4 <__GI_sigprocmask>
    4e90:	3b9ada37          	lui	s4,0x3b9ad
    4e94:	02810913          	addi	s2,sp,40
    4e98:	c1800993          	li	s3,-1000
    4e9c:	a00a0a13          	addi	s4,s4,-1536 # 3b9aca00 <_ebss+0x3b981f30>
    4ea0:	03810493          	addi	s1,sp,56

00004ea4 <.L13>:
    4ea4:	00000593          	li	a1,0
    4ea8:	00090513          	mv	a0,s2
    4eac:	055020ef          	jal	7700 <__GI_gettimeofday>
    4eb0:	03012783          	lw	a5,48(sp)
    4eb4:	00c12703          	lw	a4,12(sp)
    4eb8:	02812683          	lw	a3,40(sp)
    4ebc:	02f987b3          	mul	a5,s3,a5
    4ec0:	00872703          	lw	a4,8(a4)
    4ec4:	02c12583          	lw	a1,44(sp)
    4ec8:	00e787b3          	add	a5,a5,a4
    4ecc:	00c12703          	lw	a4,12(sp)
    4ed0:	04f12023          	sw	a5,64(sp)
    4ed4:	00072603          	lw	a2,0(a4)
    4ed8:	00472703          	lw	a4,4(a4)
    4edc:	40d606b3          	sub	a3,a2,a3
    4ee0:	00d63633          	sltu	a2,a2,a3
    4ee4:	40b70733          	sub	a4,a4,a1
    4ee8:	40c70733          	sub	a4,a4,a2
    4eec:	02d12c23          	sw	a3,56(sp)
    4ef0:	02e12e23          	sw	a4,60(sp)
    4ef4:	0207d063          	bgez	a5,4f14 <.L10>
    4ef8:	014787b3          	add	a5,a5,s4
    4efc:	04f12023          	sw	a5,64(sp)
    4f00:	fff68793          	addi	a5,a3,-1
    4f04:	0016b693          	seqz	a3,a3
    4f08:	40d70733          	sub	a4,a4,a3
    4f0c:	02f12c23          	sw	a5,56(sp)
    4f10:	02e12e23          	sw	a4,60(sp)

00004f14 <.L10>:
    4f14:	03c12783          	lw	a5,60(sp)
    4f18:	0007ca63          	bltz	a5,4f2c <.L11>
    4f1c:	00000593          	li	a1,0
    4f20:	00048513          	mv	a0,s1
    4f24:	3cd010ef          	jal	6af0 <nanosleep>
    4f28:	f6051ee3          	bnez	a0,4ea4 <.L13>

00004f2c <.L11>:
    4f2c:	00000613          	li	a2,0
    4f30:	02010593          	addi	a1,sp,32
    4f34:	00200513          	li	a0,2
    4f38:	56d020ef          	jal	7ca4 <__GI_sigprocmask>

00004f3c <.L9>:
    4f3c:	00812783          	lw	a5,8(sp)
    4f40:	0207a223          	sw	zero,36(a5)
    4f44:	0ac12083          	lw	ra,172(sp)
    4f48:	00040513          	mv	a0,s0
    4f4c:	0a812403          	lw	s0,168(sp)
    4f50:	0a412483          	lw	s1,164(sp)
    4f54:	0a012903          	lw	s2,160(sp)
    4f58:	09c12983          	lw	s3,156(sp)
    4f5c:	09812a03          	lw	s4,152(sp)
    4f60:	0b010113          	addi	sp,sp,176
    4f64:	00008067          	ret

00004f68 <pthread_initialize.part.0>:
    4f68:	fd010113          	addi	sp,sp,-48
    4f6c:	01e00513          	li	a0,30
    4f70:	02112623          	sw	ra,44(sp)
    4f74:	02812423          	sw	s0,40(sp)
    4f78:	02912223          	sw	s1,36(sp)
    4f7c:	00010413          	mv	s0,sp
    4f80:	03212023          	sw	s2,32(sp)
    4f84:	f24ff0ef          	jal	46a8 <__GI_sysconf>
    4f88:	00351513          	slli	a0,a0,0x3
    4f8c:	40a40433          	sub	s0,s0,a0
    4f90:	01e00513          	li	a0,30
    4f94:	f14ff0ef          	jal	46a8 <__GI_sysconf>
    4f98:	ffc00793          	li	a5,-4
    4f9c:	02f50533          	mul	a0,a0,a5
    4fa0:	0000f497          	auipc	s1,0xf
    4fa4:	4984a483          	lw	s1,1176(s1) # 14438 <_GLOBAL_OFFSET_TABLE_+0x30>
    4fa8:	00857533          	and	a0,a0,s0
    4fac:	00a4a023          	sw	a0,0(s1)
    4fb0:	690020ef          	jal	7640 <__GI_getpid>
    4fb4:	0000f797          	auipc	a5,0xf
    4fb8:	4ec7a783          	lw	a5,1260(a5) # 144a0 <_GLOBAL_OFFSET_TABLE_+0x98>
    4fbc:	0000f717          	auipc	a4,0xf
    4fc0:	51072703          	lw	a4,1296(a4) # 144cc <_GLOBAL_OFFSET_TABLE_+0xc4>
    4fc4:	04e7a223          	sw	a4,68(a5)
    4fc8:	0000f717          	auipc	a4,0xf
    4fcc:	46072703          	lw	a4,1120(a4) # 14428 <_GLOBAL_OFFSET_TABLE_+0x20>
    4fd0:	04e7a623          	sw	a4,76(a5)
    4fd4:	0000f717          	auipc	a4,0xf
    4fd8:	45c72703          	lw	a4,1116(a4) # 14430 <_GLOBAL_OFFSET_TABLE_+0x28>
    4fdc:	00072703          	lw	a4,0(a4)
    4fe0:	00a7aa23          	sw	a0,20(a5)
    4fe4:	14e7aa23          	sw	a4,340(a5)
    4fe8:	0000f797          	auipc	a5,0xf
    4fec:	49c7a783          	lw	a5,1180(a5) # 14484 <_GLOBAL_OFFSET_TABLE_+0x7c>
    4ff0:	0007a023          	sw	zero,0(a5)
    4ff4:	0000f797          	auipc	a5,0xf
    4ff8:	46c7a783          	lw	a5,1132(a5) # 14460 <_GLOBAL_OFFSET_TABLE_+0x58>
    4ffc:	0007a783          	lw	a5,0(a5)
    5000:	00100713          	li	a4,1

00005004 <.L17>:
    5004:	12079c63          	bnez	a5,513c <.L19>
    5008:	0000f797          	auipc	a5,0xf
    500c:	4247a783          	lw	a5,1060(a5) # 1442c <_GLOBAL_OFFSET_TABLE_+0x24>
    5010:	fff00713          	li	a4,-1
    5014:	00c10413          	addi	s0,sp,12
    5018:	0027a023          	sw	sp,0(a5)
    501c:	0000f797          	auipc	a5,0xf
    5020:	48c7a783          	lw	a5,1164(a5) # 144a8 <_GLOBAL_OFFSET_TABLE_+0xa0>
    5024:	00e7a023          	sw	a4,0(a5)
    5028:	01400613          	li	a2,20
    502c:	00100793          	li	a5,1
    5030:	00000593          	li	a1,0
    5034:	00040513          	mv	a0,s0
    5038:	00f4a023          	sw	a5,0(s1)
    503c:	ad9fe0ef          	jal	3b14 <__GI_memset>
    5040:	0000f497          	auipc	s1,0xf
    5044:	4944a483          	lw	s1,1172(s1) # 144d4 <_GLOBAL_OFFSET_TABLE_+0xcc>
    5048:	0004a503          	lw	a0,0(s1)
    504c:	00000797          	auipc	a5,0x0
    5050:	37478793          	addi	a5,a5,884 # 53c0 <pthread_handle_sigrestart>
    5054:	00000613          	li	a2,0
    5058:	00040593          	mv	a1,s0
    505c:	00f12623          	sw	a5,12(sp)
    5060:	311060ef          	jal	bb70 <__libc_sigaction>
    5064:	0004a583          	lw	a1,0(s1)
    5068:	00000797          	auipc	a5,0x0
    506c:	29478793          	addi	a5,a5,660 # 52fc <pthread_handle_sigcancel>
    5070:	01810513          	addi	a0,sp,24
    5074:	00f12623          	sw	a5,12(sp)
    5078:	0000f917          	auipc	s2,0xf
    507c:	45892903          	lw	s2,1112(s2) # 144d0 <_GLOBAL_OFFSET_TABLE_+0xc8>
    5080:	2f9060ef          	jal	bb78 <__GI_sigaddset>
    5084:	00092503          	lw	a0,0(s2)
    5088:	00000613          	li	a2,0
    508c:	00040593          	mv	a1,s0
    5090:	2e1060ef          	jal	bb70 <__libc_sigaction>
